ARM GAS  C:\Users\turan\AppData\Local\Temp\ccBc3gT3.s 			page 1


   1              		.syntax unified
   2              		.cpu cortex-m0
   3              		.fpu softvfp
   4              		.eabi_attribute 20, 1
   5              		.eabi_attribute 21, 1
   6              		.eabi_attribute 23, 3
   7              		.eabi_attribute 24, 1
   8              		.eabi_attribute 25, 1
   9              		.eabi_attribute 26, 1
  10              		.eabi_attribute 30, 1
  11              		.eabi_attribute 34, 0
  12              		.eabi_attribute 18, 4
  13              		.thumb
  14              		.syntax unified
  15              		.file	"process_ui.c"
  16              		.text
  17              	.Ltext0:
  18              		.cfi_sections	.debug_frame
  19              		.section	.text.processUiThread,"ax",%progbits
  20              		.align	2
  21              		.code	16
  22              		.thumb_func
  23              		.type	processUiThread, %function
  24              	processUiThread:
  25              	.LFB43:
  26              		.file 1 "app\\process_ui.c"
   1:app/process_ui.c **** /** @file       process_ui.c
   2:app/process_ui.c ****  *  @brief      PROCESS_UI application program file
   3:app/process_ui.c ****  *  @copyright  (c) 2021-Arcelik - All Rights Reserved
   4:app/process_ui.c ****  *              Permission to use, reproduce, copy, prepare derivative works,
   5:app/process_ui.c ****  *              modify, distribute, perform, display or sell this software and/or
   6:app/process_ui.c ****  *              its documentation for any purpose is prohibited without the express
   7:app/process_ui.c ****  *              written consent of Arcelik A.S.
   8:app/process_ui.c ****  *  @author     mertGemalmaz
   9:app/process_ui.c ****  *  @date       01.06.2021
  10:app/process_ui.c ****  */
  11:app/process_ui.c **** #define FILE_PROCESS_UI_C
  12:app/process_ui.c **** 
  13:app/process_ui.c **** #include "process_ui.h"
  14:app/process_ui.c **** #include "rcos.h"
  15:app/process_ui.c **** #include "system.h"
  16:app/process_ui.c **** #include "dev\sevenSegmentdisplay.h"
  17:app/process_ui.c **** #define DEBUG_FILE_NAME ""
  18:app/process_ui.c **** 
  19:app/process_ui.c **** // #define DEBUG_PORT_
  20:app/process_ui.c **** // DEBUG_START(0)
  21:app/process_ui.c **** 
  22:app/process_ui.c **** /**
  23:app/process_ui.c ****  *  @addtogroup PROCESS_UI
  24:app/process_ui.c ****  *  @{
  25:app/process_ui.c ****  */
  26:app/process_ui.c **** 
  27:app/process_ui.c **** 
  28:app/process_ui.c **** 
  29:app/process_ui.c **** 
  30:app/process_ui.c **** #define BUZZER_BEEP(data) (devIoPut(params->patternBuzzer, (uint32_t)data))
  31:app/process_ui.c **** #define CHILD_LOCK_ENABLE TRUE
ARM GAS  C:\Users\turan\AppData\Local\Temp\ccBc3gT3.s 			page 2


  32:app/process_ui.c **** #define CHILD_LOCK_DISABLE FALSE
  33:app/process_ui.c **** #define HALF_SECOND_IN_MS (500)
  34:app/process_ui.c **** #define ONE_SECOND_IN_MS (1000)
  35:app/process_ui.c **** #define TWO_SECOND_IN_MS (2000)
  36:app/process_ui.c **** #define THREE_SECOND_IN_MS (3000)
  37:app/process_ui.c **** #define FOUR_SECOND_IN_MS (4000)
  38:app/process_ui.c **** #define FIVE_SECOND_IN_MS (5000)
  39:app/process_ui.c **** #define BUTON_SHORT_PRESS_DURATION (50)
  40:app/process_ui.c **** #define BUTON_LONG_PRESS_DURATION (THREE_SECOND_IN_MS)
  41:app/process_ui.c **** #define SEVSEG_MAX_COUNT 19
  42:app/process_ui.c **** #define SEVSEG_MIN_COUNT 0
  43:app/process_ui.c **** 
  44:app/process_ui.c **** /// @brief  Local Variables
  45:app/process_ui.c **** typedef enum
  46:app/process_ui.c **** {
  47:app/process_ui.c ****     eLedP43,
  48:app/process_ui.c ****     eLedP44,
  49:app/process_ui.c ****     eLedP45,
  50:app/process_ui.c **** } teLeds;
  51:app/process_ui.c **** 
  52:app/process_ui.c **** typedef enum
  53:app/process_ui.c **** {
  54:app/process_ui.c ****     eBuzzerLevel1 = 5,
  55:app/process_ui.c ****     eBuzzerLevel2 = 10,
  56:app/process_ui.c ****     eBuzzerLevel3 = 30,
  57:app/process_ui.c **** } teBuzzerSoundLevel;
  58:app/process_ui.c **** 
  59:app/process_ui.c **** typedef struct
  60:app/process_ui.c **** {
  61:app/process_ui.c ****     uint8_t p46;
  62:app/process_ui.c ****     teBool p70;
  63:app/process_ui.c ****     teBool p71;
  64:app/process_ui.c **** } tsButonStatus; //0: not pressed    1: is pressing
  65:app/process_ui.c **** 
  66:app/process_ui.c **** tsButonStatus guiButonStatus;
  67:app/process_ui.c **** uint8_t sevSegCounter = 0;
  68:app/process_ui.c **** uint8_t encoderStat = 0;
  69:app/process_ui.c **** uint8_t encoderStatPrev = 0;
  70:app/process_ui.c **** 
  71:app/process_ui.c **** /// @brief  Buzzer Melodies
  72:app/process_ui.c **** const tsPatternNode melodyArcelik[] =
  73:app/process_ui.c ****     {
  74:app/process_ui.c **** #define M_TEMPO TEMPO_Lento
  75:app/process_ui.c ****         MELODY_TELVE_ARCELIK,
  76:app/process_ui.c ****         PATTERN_NODE_END(0)
  77:app/process_ui.c ****     };
  78:app/process_ui.c **** 
  79:app/process_ui.c **** const tsPatternNode melodyPres[] =
  80:app/process_ui.c ****     {
  81:app/process_ui.c ****         {NOTE_7_A, 150},
  82:app/process_ui.c ****         PATTERN_NODE_END(0)
  83:app/process_ui.c ****     };
  84:app/process_ui.c **** 
  85:app/process_ui.c **** const tsPatternNode melodyRelease[] =
  86:app/process_ui.c ****     {
  87:app/process_ui.c ****         {NOTE_7_G, 150},
  88:app/process_ui.c ****         PATTERN_NODE_END(0)
ARM GAS  C:\Users\turan\AppData\Local\Temp\ccBc3gT3.s 			page 3


  89:app/process_ui.c ****     };
  90:app/process_ui.c **** 
  91:app/process_ui.c **** const tsPatternNode melodyKeyWarning[] =
  92:app/process_ui.c ****     {
  93:app/process_ui.c ****         {4000, 150},
  94:app/process_ui.c ****         {3000, 200},
  95:app/process_ui.c ****         {4000, 150},
  96:app/process_ui.c ****         PATTERN_NODE_END(0)};
  97:app/process_ui.c **** 
  98:app/process_ui.c **** const tsPatternNode melodyLock[] =
  99:app/process_ui.c ****     {
 100:app/process_ui.c ****         {NOTE_7_A, 150},
 101:app/process_ui.c ****         {NOTE_7_B, 200},
 102:app/process_ui.c ****         {NOTE_7_C, 150},
 103:app/process_ui.c ****         PATTERN_NODE_END(0)
 104:app/process_ui.c ****     };
 105:app/process_ui.c **** 
 106:app/process_ui.c **** /// @brief  Local Function Prototypes
 107:app/process_ui.c **** static PROCESS_HANDLER_PROTO(processUiHandler);
 108:app/process_ui.c **** static void guiDefaultHandler(tsProcess *process);
 109:app/process_ui.c **** void ledGuiHandler(tsProcess *process, teLeds led, uint8 onOff);
 110:app/process_ui.c **** void allLedsOnOff(tsProcess *process, uint8 onOff);
 111:app/process_ui.c **** void buttonMapper(tsProcess *process, teProcessUiEvents event, uint16_t pressDuration, teBool *buto
 112:app/process_ui.c **** 
 113:app/process_ui.c **** static PT_THREAD(processUiThread)
 114:app/process_ui.c **** {
  27              		.loc 1 114 0
  28              		.cfi_startproc
  29              		@ args = 0, pretend = 0, frame = 0
  30              		@ frame_needed = 0, uses_anonymous_args = 0
  31              		@ link register save eliminated.
  32              	.LVL0:
  33              	.LBB2:
 115:app/process_ui.c ****     tsProcessUiParams *params = process->parameters;
 116:app/process_ui.c ****     const tsProcessUiConsts *consts = process->constants;
 117:app/process_ui.c ****     UNUSED(params); // REMOVE IF USED
 118:app/process_ui.c ****     UNUSED(consts); // REMOVE IF USED
 119:app/process_ui.c ****     PT_BEGIN();
  34              		.loc 1 119 0
  35 0000 0022     		movs	r2, #0
  36 0002 8B5E     		ldrsh	r3, [r1, r2]
  37 0004 002B     		cmp	r3, #0
  38 0006 02D0     		beq	.L3
  39 0008 7B2B     		cmp	r3, #123
  40 000a 04D0     		beq	.L6
  41 000c 07E0     		b	.L8
  42              	.LVL1:
  43              	.L3:
 120:app/process_ui.c **** 
 121:app/process_ui.c ****     for (;;)
 122:app/process_ui.c ****     {
 123:app/process_ui.c ****         PT_YIELD();
  44              		.loc 1 123 0
  45 000e 7B23     		movs	r3, #123
  46 0010 0B80     		strh	r3, [r1]
  47 0012 0023     		movs	r3, #0
  48 0014 00E0     		b	.L4
ARM GAS  C:\Users\turan\AppData\Local\Temp\ccBc3gT3.s 			page 4


  49              	.LVL2:
  50              	.L6:
 119:app/process_ui.c **** 
  51              		.loc 1 119 0
  52 0016 0123     		movs	r3, #1
  53              	.LVL3:
  54              	.L4:
  55              		.loc 1 123 0 discriminator 1
  56 0018 002B     		cmp	r3, #0
  57 001a F8D1     		bne	.L3
  58 001c 03E0     		b	.L7
  59              	.LVL4:
  60              	.L8:
 124:app/process_ui.c ****     }
 125:app/process_ui.c **** 
 126:app/process_ui.c ****     PT_END();
  61              		.loc 1 126 0
  62 001e 0023     		movs	r3, #0
  63 0020 0B80     		strh	r3, [r1]
  64              	.LVL5:
  65 0022 0020     		movs	r0, #0
  66              	.LVL6:
  67 0024 00E0     		b	.L5
  68              	.LVL7:
  69              	.L7:
 123:app/process_ui.c ****     }
  70              		.loc 1 123 0
  71 0026 0120     		movs	r0, #1
  72              	.LVL8:
  73              	.L5:
  74              	.LBE2:
 127:app/process_ui.c **** }
  75              		.loc 1 127 0
  76              		@ sp needed
  77 0028 7047     		bx	lr
  78              		.cfi_endproc
  79              	.LFE43:
  80              		.size	processUiThread, .-processUiThread
  81 002a C046     		.section	.text.processUiInit,"ax",%progbits
  82              		.align	2
  83              		.global	processUiInit
  84              		.code	16
  85              		.thumb_func
  86              		.type	processUiInit, %function
  87              	processUiInit:
  88              	.LFB44:
 128:app/process_ui.c **** 
 129:app/process_ui.c **** 
 130:app/process_ui.c **** /// @brief  Initialization function of processUi
 131:app/process_ui.c **** PROCESS_INIT_PROTO(processUiInit)
 132:app/process_ui.c **** {
  89              		.loc 1 132 0
  90              		.cfi_startproc
  91              		@ args = 0, pretend = 0, frame = 0
  92              		@ frame_needed = 0, uses_anonymous_args = 0
  93              	.LVL9:
  94 0000 70B5     		push	{r4, r5, r6, lr}
ARM GAS  C:\Users\turan\AppData\Local\Temp\ccBc3gT3.s 			page 5


  95              		.cfi_def_cfa_offset 16
  96              		.cfi_offset 4, -16
  97              		.cfi_offset 5, -12
  98              		.cfi_offset 6, -8
  99              		.cfi_offset 14, -4
 133:app/process_ui.c ****     tsProcessUiParams *params = process->parameters;
 100              		.loc 1 133 0
 101 0002 8469     		ldr	r4, [r0, #24]
 102              	.LVL10:
 134:app/process_ui.c ****     const tsProcessUiConsts *consts = process->constants;
 103              		.loc 1 134 0
 104 0004 C569     		ldr	r5, [r0, #28]
 105              	.LVL11:
 135:app/process_ui.c **** 
 136:app/process_ui.c ****     UNUSED(params); // REMOVE IF USED
 137:app/process_ui.c ****     UNUSED(consts); // REMOVE IF USED
 138:app/process_ui.c **** 
 139:app/process_ui.c ****     PROCESS_STATE_CHANGE(process, processUiHandler);
 106              		.loc 1 139 0
 107 0006 0369     		ldr	r3, [r0, #16]
 108 0008 4361     		str	r3, [r0, #20]
 109 000a 114B     		ldr	r3, .L10
 110 000c 0361     		str	r3, [r0, #16]
 140:app/process_ui.c ****     threadStart(process, processUiThread);
 111              		.loc 1 140 0
 112 000e 1149     		ldr	r1, .L10+4
 113 0010 FFF7FEFF 		bl	threadStart
 114              	.LVL12:
 141:app/process_ui.c ****     //process->initialized = 1; // If process needs other checks, set this another time
 142:app/process_ui.c **** 
 143:app/process_ui.c ****     devIoInit(consts->csdDevIo, NULL);      //init capsense object
 115              		.loc 1 143 0
 116 0014 2868     		ldr	r0, [r5]
 117 0016 0021     		movs	r1, #0
 118 0018 FFF7FEFF 		bl	devIoInit
 119              	.LVL13:
 144:app/process_ui.c ****     devIoInit(params->leds, NULL);          //init led object
 120              		.loc 1 144 0
 121 001c 0021     		movs	r1, #0
 122 001e A06B     		ldr	r0, [r4, #56]
 123 0020 FFF7FEFF 		bl	devIoInit
 124              	.LVL14:
 145:app/process_ui.c ****     devIoInit(params->patternBuzzer, NULL); //init buzzer pattern object
 125              		.loc 1 145 0
 126 0024 0021     		movs	r1, #0
 127 0026 206C     		ldr	r0, [r4, #64]
 128 0028 FFF7FEFF 		bl	devIoInit
 129              	.LVL15:
 146:app/process_ui.c ****     devIoInit(params->buzzerLevel, NULL);   //init buzzer sound level object
 130              		.loc 1 146 0
 131 002c 0021     		movs	r1, #0
 132 002e E06B     		ldr	r0, [r4, #60]
 133 0030 FFF7FEFF 		bl	devIoInit
 134              	.LVL16:
 147:app/process_ui.c **** 
 148:app/process_ui.c ****     devIoPut(params->buzzerLevel, eBuzzerLevel3); //arrange buzzer sound level
 135              		.loc 1 148 0
ARM GAS  C:\Users\turan\AppData\Local\Temp\ccBc3gT3.s 			page 6


 136 0034 1E21     		movs	r1, #30
 137 0036 E06B     		ldr	r0, [r4, #60]
 138 0038 FFF7FEFF 		bl	devIoPut
 139              	.LVL17:
 149:app/process_ui.c ****     //allLedsOnOff(process, TRUE);
 150:app/process_ui.c ****     //BUZZER_BEEP(melodyArcelik);                    //starUp Melody
 151:app/process_ui.c ****     timerEventStart(&params->stopAnimation, 2300); //animation stop timer
 140              		.loc 1 151 0
 141 003c 2000     		movs	r0, r4
 142 003e 1030     		adds	r0, r0, #16
 143 0040 0549     		ldr	r1, .L10+8
 144 0042 FFF7FEFF 		bl	timerEventStart
 145              	.LVL18:
 152:app/process_ui.c ****     params->lockStatus = CHILD_LOCK_ENABLE;
 146              		.loc 1 152 0
 147 0046 0122     		movs	r2, #1
 148 0048 3423     		movs	r3, #52
 149 004a E254     		strb	r2, [r4, r3]
 153:app/process_ui.c **** }
 150              		.loc 1 153 0
 151              		@ sp needed
 152              	.LVL19:
 153              	.LVL20:
 154 004c 70BD     		pop	{r4, r5, r6, pc}
 155              	.L11:
 156 004e C046     		.align	2
 157              	.L10:
 158 0050 00000000 		.word	processUiHandler
 159 0054 00000000 		.word	processUiThread
 160 0058 FC080000 		.word	2300
 161              		.cfi_endproc
 162              	.LFE44:
 163              		.size	processUiInit, .-processUiInit
 164              		.section	.text.processUiDeinit,"ax",%progbits
 165              		.align	2
 166              		.global	processUiDeinit
 167              		.code	16
 168              		.thumb_func
 169              		.type	processUiDeinit, %function
 170              	processUiDeinit:
 171              	.LFB45:
 154:app/process_ui.c **** 
 155:app/process_ui.c **** /// @brief  Deinitialization function of processUi
 156:app/process_ui.c **** PROCESS_DEINIT_PROTO(processUiDeinit)
 157:app/process_ui.c **** {
 172              		.loc 1 157 0
 173              		.cfi_startproc
 174              		@ args = 0, pretend = 0, frame = 0
 175              		@ frame_needed = 0, uses_anonymous_args = 0
 176              	.LVL21:
 177 0000 70B5     		push	{r4, r5, r6, lr}
 178              		.cfi_def_cfa_offset 16
 179              		.cfi_offset 4, -16
 180              		.cfi_offset 5, -12
 181              		.cfi_offset 6, -8
 182              		.cfi_offset 14, -4
 183 0002 0400     		movs	r4, r0
ARM GAS  C:\Users\turan\AppData\Local\Temp\ccBc3gT3.s 			page 7


 184              	.LVL22:
 158:app/process_ui.c ****     tsProcessUiParams *params = process->parameters;
 159:app/process_ui.c ****     const tsProcessUiConsts *consts = process->constants;
 160:app/process_ui.c **** 
 161:app/process_ui.c ****     UNUSED(params); // REMOVE IF USED
 162:app/process_ui.c ****     UNUSED(consts); // REMOVE IF USED
 163:app/process_ui.c **** 
 164:app/process_ui.c ****     PROCESS_STATE_CHANGE(process, NULL);
 185              		.loc 1 164 0
 186 0004 0369     		ldr	r3, [r0, #16]
 187 0006 4361     		str	r3, [r0, #20]
 188 0008 0025     		movs	r5, #0
 189 000a 0561     		str	r5, [r0, #16]
 165:app/process_ui.c ****     threadStop(process, process->threadFunction);
 190              		.loc 1 165 0
 191 000c 816A     		ldr	r1, [r0, #40]
 192 000e FFF7FEFF 		bl	threadStop
 193              	.LVL23:
 166:app/process_ui.c ****     process->initialized = 0; // If process needs other checks, clear this another time
 194              		.loc 1 166 0
 195 0012 4523     		movs	r3, #69
 196 0014 E554     		strb	r5, [r4, r3]
 167:app/process_ui.c **** }
 197              		.loc 1 167 0
 198              		@ sp needed
 199              	.LVL24:
 200 0016 70BD     		pop	{r4, r5, r6, pc}
 201              		.cfi_endproc
 202              	.LFE45:
 203              		.size	processUiDeinit, .-processUiDeinit
 204              		.section	.text.ledGuiHandler,"ax",%progbits
 205              		.align	2
 206              		.global	ledGuiHandler
 207              		.code	16
 208              		.thumb_func
 209              		.type	ledGuiHandler, %function
 210              	ledGuiHandler:
 211              	.LFB48:
 168:app/process_ui.c **** 
 169:app/process_ui.c **** 
 170:app/process_ui.c **** /// @brief  Event handler function of processUi
 171:app/process_ui.c **** static PROCESS_HANDLER_PROTO(processUiHandler)
 172:app/process_ui.c **** {
 173:app/process_ui.c ****     tsProcessUiParams *params = process->parameters;
 174:app/process_ui.c ****     const tsProcessUiConsts *consts = process->constants;
 175:app/process_ui.c **** 
 176:app/process_ui.c ****     UNUSED(params); // REMOVE IF USED
 177:app/process_ui.c ****     UNUSED(consts); // REMOVE IF USED
 178:app/process_ui.c ****     
 179:app/process_ui.c **** 
 180:app/process_ui.c ****     if(eventCurrent.event == p46Pressed){
 181:app/process_ui.c ****         ledGuiHandler(process, eLedP43, TRUE);
 182:app/process_ui.c ****     }else{
 183:app/process_ui.c ****         ledGuiHandler(process, eLedP43, FALSE);
 184:app/process_ui.c ****     }
 185:app/process_ui.c ****     
 186:app/process_ui.c ****     if(eventCurrent.event == p70Pressed){
ARM GAS  C:\Users\turan\AppData\Local\Temp\ccBc3gT3.s 			page 8


 187:app/process_ui.c ****         ledGuiHandler(process, eLedP44, TRUE);
 188:app/process_ui.c ****     }else{
 189:app/process_ui.c ****         ledGuiHandler(process, eLedP44, FALSE);
 190:app/process_ui.c ****     }
 191:app/process_ui.c ****     
 192:app/process_ui.c ****     if(eventCurrent.event == p71Pressed){
 193:app/process_ui.c ****         ledGuiHandler(process, eLedP45, TRUE);
 194:app/process_ui.c ****     }else{
 195:app/process_ui.c ****         ledGuiHandler(process, eLedP45, FALSE);
 196:app/process_ui.c ****     }
 197:app/process_ui.c **** }
 198:app/process_ui.c **** 
 199:app/process_ui.c **** static void guiDefaultHandler(tsProcess *process)
 200:app/process_ui.c **** {
 201:app/process_ui.c ****     tsProcessUiParams *params = process->parameters;
 202:app/process_ui.c ****     const tsProcessUiConsts *consts = process->constants;
 203:app/process_ui.c **** 
 204:app/process_ui.c ****     UNUSED(params); // REMOVE IF USED
 205:app/process_ui.c ****     UNUSED(consts); // REMOVE IF USED
 206:app/process_ui.c **** 
 207:app/process_ui.c **** 
 208:app/process_ui.c ****     /*switch (eventCurrent.event)
 209:app/process_ui.c ****     {
 210:app/process_ui.c ****     case eGuiGetUi: // gather ui data from DEVs
 211:app/process_ui.c ****     {
 212:app/process_ui.c ****         encoderStat = devIoGet(params->encoder);
 213:app/process_ui.c **** 
 214:app/process_ui.c ****         if (encoderStat ^ encoderStatPrev)
 215:app/process_ui.c ****         {
 216:app/process_ui.c ****             if ((encoderStat) > (encoderStatPrev)) //clockWise
 217:app/process_ui.c ****             {
 218:app/process_ui.c ****                 eventPost(process->enumeration, eGuiEncoderCW, NULL, 0);
 219:app/process_ui.c ****             }
 220:app/process_ui.c ****             else // counterClockWise
 221:app/process_ui.c ****             {
 222:app/process_ui.c ****                 eventPost(process->enumeration, eGuiEncoderCCW, NULL, 0);
 223:app/process_ui.c ****             }
 224:app/process_ui.c ****         }
 225:app/process_ui.c ****         encoderStatPrev = encoderStat;
 226:app/process_ui.c ****         timerEventStart(&params->getUiData, 100);
 227:app/process_ui.c ****     }
 228:app/process_ui.c ****     break;
 229:app/process_ui.c **** 
 230:app/process_ui.c ****     case p46Pressed:
 231:app/process_ui.c ****     {
 232:app/process_ui.c ****         ledGuiHandler(process, eLedP43, TRUE);
 233:app/process_ui.c ****         BUZZER_BEEP(melodyPres);
 234:app/process_ui.c ****     }
 235:app/process_ui.c ****     break;
 236:app/process_ui.c **** 
 237:app/process_ui.c ****     case p46Released:
 238:app/process_ui.c ****     {
 239:app/process_ui.c ****         ledGuiHandler(process, eLedP43, FALSE);
 240:app/process_ui.c ****         BUZZER_BEEP(melodyRelease);
 241:app/process_ui.c ****     }
 242:app/process_ui.c ****     break;
 243:app/process_ui.c **** 
ARM GAS  C:\Users\turan\AppData\Local\Temp\ccBc3gT3.s 			page 9


 244:app/process_ui.c ****     case p70Pressed:
 245:app/process_ui.c ****     {
 246:app/process_ui.c ****         buttonMapper(process, p70PressedShort, BUTON_SHORT_PRESS_DURATION, &guiButonStatus.p70);
 247:app/process_ui.c ****     }
 248:app/process_ui.c ****     break;
 249:app/process_ui.c **** 
 250:app/process_ui.c ****     case p70Released:
 251:app/process_ui.c ****     {
 252:app/process_ui.c ****         guiButonStatus.p70 = FALSE;
 253:app/process_ui.c ****     }
 254:app/process_ui.c ****     break;
 255:app/process_ui.c **** 
 256:app/process_ui.c ****     case p71Pressed:
 257:app/process_ui.c ****     {
 258:app/process_ui.c ****         buttonMapper(process, p71PressedShort, BUTON_SHORT_PRESS_DURATION, &guiButonStatus.p71);
 259:app/process_ui.c ****     }
 260:app/process_ui.c ****     break;
 261:app/process_ui.c **** 
 262:app/process_ui.c ****     case p71Released:
 263:app/process_ui.c ****     {
 264:app/process_ui.c ****         guiButonStatus.p71 = FALSE;
 265:app/process_ui.c ****     }
 266:app/process_ui.c ****     break;
 267:app/process_ui.c **** 
 268:app/process_ui.c ****     default:
 269:app/process_ui.c ****         break;
 270:app/process_ui.c ****     }*/
 271:app/process_ui.c **** }
 272:app/process_ui.c **** 
 273:app/process_ui.c **** void ledGuiHandler(tsProcess *process, teLeds led, uint8 onOff)
 274:app/process_ui.c **** {
 212              		.loc 1 274 0
 213              		.cfi_startproc
 214              		@ args = 0, pretend = 0, frame = 0
 215              		@ frame_needed = 0, uses_anonymous_args = 0
 216              	.LVL25:
 217 0000 10B5     		push	{r4, lr}
 218              		.cfi_def_cfa_offset 8
 219              		.cfi_offset 4, -8
 220              		.cfi_offset 14, -4
 275:app/process_ui.c ****     tsProcessUiParams *params = process->parameters;
 221              		.loc 1 275 0
 222 0002 8369     		ldr	r3, [r0, #24]
 223              	.LVL26:
 276:app/process_ui.c ****     const tsProcessUiConsts *consts = process->constants;
 277:app/process_ui.c **** 
 278:app/process_ui.c ****     UNUSED(params); // REMOVE IF USED
 279:app/process_ui.c ****     UNUSED(consts); // REMOVE IF USED
 280:app/process_ui.c **** 
 281:app/process_ui.c ****     if (onOff)
 224              		.loc 1 281 0
 225 0004 002A     		cmp	r2, #0
 226 0006 05D0     		beq	.L14
 282:app/process_ui.c ****     {
 283:app/process_ui.c ****         params->ledState |= BIT(led); //turn on
 227              		.loc 1 283 0
 228 0008 0122     		movs	r2, #1
ARM GAS  C:\Users\turan\AppData\Local\Temp\ccBc3gT3.s 			page 10


 229              	.LVL27:
 230 000a 8A40     		lsls	r2, r2, r1
 231 000c 196B     		ldr	r1, [r3, #48]
 232              	.LVL28:
 233 000e 0A43     		orrs	r2, r1
 234 0010 1A63     		str	r2, [r3, #48]
 235              	.LVL29:
 236 0012 04E0     		b	.L15
 237              	.LVL30:
 238              	.L14:
 284:app/process_ui.c ****     }
 285:app/process_ui.c ****     else
 286:app/process_ui.c ****     {
 287:app/process_ui.c ****         params->ledState &= ~BIT(led); //turn off
 239              		.loc 1 287 0
 240 0014 0122     		movs	r2, #1
 241              	.LVL31:
 242 0016 8A40     		lsls	r2, r2, r1
 243 0018 196B     		ldr	r1, [r3, #48]
 244              	.LVL32:
 245 001a 9143     		bics	r1, r2
 246 001c 1963     		str	r1, [r3, #48]
 247              	.LVL33:
 248              	.L15:
 288:app/process_ui.c ****     }
 289:app/process_ui.c **** 
 290:app/process_ui.c ****     devIoPut(params->leds, params->ledState);
 249              		.loc 1 290 0
 250 001e 196B     		ldr	r1, [r3, #48]
 251 0020 986B     		ldr	r0, [r3, #56]
 252              	.LVL34:
 253 0022 FFF7FEFF 		bl	devIoPut
 254              	.LVL35:
 291:app/process_ui.c **** }
 255              		.loc 1 291 0
 256              		@ sp needed
 257 0026 10BD     		pop	{r4, pc}
 258              		.cfi_endproc
 259              	.LFE48:
 260              		.size	ledGuiHandler, .-ledGuiHandler
 261              		.section	.text.processUiHandler,"ax",%progbits
 262              		.align	2
 263              		.code	16
 264              		.thumb_func
 265              		.type	processUiHandler, %function
 266              	processUiHandler:
 267              	.LFB46:
 172:app/process_ui.c ****     tsProcessUiParams *params = process->parameters;
 268              		.loc 1 172 0
 269              		.cfi_startproc
 270              		@ args = 0, pretend = 0, frame = 0
 271              		@ frame_needed = 0, uses_anonymous_args = 0
 272              	.LVL36:
 273 0000 10B5     		push	{r4, lr}
 274              		.cfi_def_cfa_offset 8
 275              		.cfi_offset 4, -8
 276              		.cfi_offset 14, -4
ARM GAS  C:\Users\turan\AppData\Local\Temp\ccBc3gT3.s 			page 11


 277 0002 0400     		movs	r4, r0
 278              	.LVL37:
 180:app/process_ui.c ****         ledGuiHandler(process, eLedP43, TRUE);
 279              		.loc 1 180 0
 280 0004 154B     		ldr	r3, .L23
 281 0006 9B78     		ldrb	r3, [r3, #2]
 282 0008 052B     		cmp	r3, #5
 283 000a 04D1     		bne	.L17
 181:app/process_ui.c ****     }else{
 284              		.loc 1 181 0
 285 000c 0122     		movs	r2, #1
 286 000e 0021     		movs	r1, #0
 287 0010 FFF7FEFF 		bl	ledGuiHandler
 288              	.LVL38:
 289 0014 03E0     		b	.L18
 290              	.LVL39:
 291              	.L17:
 183:app/process_ui.c ****     }
 292              		.loc 1 183 0
 293 0016 0022     		movs	r2, #0
 294 0018 0021     		movs	r1, #0
 295 001a FFF7FEFF 		bl	ledGuiHandler
 296              	.LVL40:
 297              	.L18:
 186:app/process_ui.c ****         ledGuiHandler(process, eLedP44, TRUE);
 298              		.loc 1 186 0
 299 001e 0F4B     		ldr	r3, .L23
 300 0020 9B78     		ldrb	r3, [r3, #2]
 301 0022 072B     		cmp	r3, #7
 302 0024 05D1     		bne	.L19
 187:app/process_ui.c ****     }else{
 303              		.loc 1 187 0
 304 0026 0122     		movs	r2, #1
 305 0028 0121     		movs	r1, #1
 306 002a 2000     		movs	r0, r4
 307 002c FFF7FEFF 		bl	ledGuiHandler
 308              	.LVL41:
 309 0030 04E0     		b	.L20
 310              	.L19:
 189:app/process_ui.c ****     }
 311              		.loc 1 189 0
 312 0032 0022     		movs	r2, #0
 313 0034 0121     		movs	r1, #1
 314 0036 2000     		movs	r0, r4
 315 0038 FFF7FEFF 		bl	ledGuiHandler
 316              	.LVL42:
 317              	.L20:
 192:app/process_ui.c ****         ledGuiHandler(process, eLedP45, TRUE);
 318              		.loc 1 192 0
 319 003c 074B     		ldr	r3, .L23
 320 003e 9B78     		ldrb	r3, [r3, #2]
 321 0040 0B2B     		cmp	r3, #11
 322 0042 05D1     		bne	.L21
 193:app/process_ui.c ****     }else{
 323              		.loc 1 193 0
 324 0044 0122     		movs	r2, #1
 325 0046 0221     		movs	r1, #2
ARM GAS  C:\Users\turan\AppData\Local\Temp\ccBc3gT3.s 			page 12


 326 0048 2000     		movs	r0, r4
 327 004a FFF7FEFF 		bl	ledGuiHandler
 328              	.LVL43:
 329 004e 04E0     		b	.L16
 330              	.L21:
 195:app/process_ui.c ****     }
 331              		.loc 1 195 0
 332 0050 0022     		movs	r2, #0
 333 0052 0221     		movs	r1, #2
 334 0054 2000     		movs	r0, r4
 335 0056 FFF7FEFF 		bl	ledGuiHandler
 336              	.LVL44:
 337              	.L16:
 197:app/process_ui.c **** 
 338              		.loc 1 197 0
 339              		@ sp needed
 340              	.LVL45:
 341 005a 10BD     		pop	{r4, pc}
 342              	.L24:
 343              		.align	2
 344              	.L23:
 345 005c 00000000 		.word	eventCurrent
 346              		.cfi_endproc
 347              	.LFE46:
 348              		.size	processUiHandler, .-processUiHandler
 349              		.section	.text.allLedsOnOff,"ax",%progbits
 350              		.align	2
 351              		.global	allLedsOnOff
 352              		.code	16
 353              		.thumb_func
 354              		.type	allLedsOnOff, %function
 355              	allLedsOnOff:
 356              	.LFB49:
 292:app/process_ui.c **** 
 293:app/process_ui.c **** void allLedsOnOff(tsProcess *process, uint8 onOff)
 294:app/process_ui.c **** {
 357              		.loc 1 294 0
 358              		.cfi_startproc
 359              		@ args = 0, pretend = 0, frame = 0
 360              		@ frame_needed = 0, uses_anonymous_args = 0
 361              	.LVL46:
 362 0000 70B5     		push	{r4, r5, r6, lr}
 363              		.cfi_def_cfa_offset 16
 364              		.cfi_offset 4, -16
 365              		.cfi_offset 5, -12
 366              		.cfi_offset 6, -8
 367              		.cfi_offset 14, -4
 368 0002 0600     		movs	r6, r0
 369 0004 0D00     		movs	r5, r1
 370              	.LVL47:
 295:app/process_ui.c ****     tsProcessUiParams *params = process->parameters;
 296:app/process_ui.c ****     const tsProcessUiConsts *consts = process->constants;
 297:app/process_ui.c **** 
 298:app/process_ui.c ****     UNUSED(params); // REMOVE IF USED
 299:app/process_ui.c ****     UNUSED(consts); // REMOVE IF USED
 300:app/process_ui.c ****     uint8 idx;
 301:app/process_ui.c ****     for (idx = eLedP43; idx <= eLedP45; idx++)
ARM GAS  C:\Users\turan\AppData\Local\Temp\ccBc3gT3.s 			page 13


 371              		.loc 1 301 0
 372 0006 0024     		movs	r4, #0
 373 0008 06E0     		b	.L26
 374              	.LVL48:
 375              	.L27:
 302:app/process_ui.c ****     {
 303:app/process_ui.c ****         ledGuiHandler(process, idx, onOff);
 376              		.loc 1 303 0 discriminator 3
 377 000a 2A00     		movs	r2, r5
 378 000c 2100     		movs	r1, r4
 379 000e 3000     		movs	r0, r6
 380 0010 FFF7FEFF 		bl	ledGuiHandler
 381              	.LVL49:
 301:app/process_ui.c ****     {
 382              		.loc 1 301 0 discriminator 3
 383 0014 0134     		adds	r4, r4, #1
 384              	.LVL50:
 385 0016 E4B2     		uxtb	r4, r4
 386              	.LVL51:
 387              	.L26:
 301:app/process_ui.c ****     {
 388              		.loc 1 301 0 is_stmt 0 discriminator 1
 389 0018 022C     		cmp	r4, #2
 390 001a F6D9     		bls	.L27
 304:app/process_ui.c ****     }
 305:app/process_ui.c **** }
 391              		.loc 1 305 0 is_stmt 1
 392              		@ sp needed
 393              	.LVL52:
 394              	.LVL53:
 395 001c 70BD     		pop	{r4, r5, r6, pc}
 396              		.cfi_endproc
 397              	.LFE49:
 398              		.size	allLedsOnOff, .-allLedsOnOff
 399 001e C046     		.section	.text.buttonMapper,"ax",%progbits
 400              		.align	2
 401              		.global	buttonMapper
 402              		.code	16
 403              		.thumb_func
 404              		.type	buttonMapper, %function
 405              	buttonMapper:
 406              	.LFB50:
 306:app/process_ui.c **** 
 307:app/process_ui.c **** void buttonMapper(tsProcess *process, teProcessUiEvents event, uint16_t pressDuration, teBool *buto
 308:app/process_ui.c **** {
 407              		.loc 1 308 0
 408              		.cfi_startproc
 409              		@ args = 0, pretend = 0, frame = 16
 410              		@ frame_needed = 0, uses_anonymous_args = 0
 411              	.LVL54:
 412 0000 F0B5     		push	{r4, r5, r6, r7, lr}
 413              		.cfi_def_cfa_offset 20
 414              		.cfi_offset 4, -20
 415              		.cfi_offset 5, -16
 416              		.cfi_offset 6, -12
 417              		.cfi_offset 7, -8
 418              		.cfi_offset 14, -4
ARM GAS  C:\Users\turan\AppData\Local\Temp\ccBc3gT3.s 			page 14


 419 0002 85B0     		sub	sp, sp, #20
 420              		.cfi_def_cfa_offset 40
 421 0004 0191     		str	r1, [sp, #4]
 422 0006 1500     		movs	r5, r2
 423 0008 1F00     		movs	r7, r3
 309:app/process_ui.c ****     tsProcessUiParams *params = process->parameters;
 424              		.loc 1 309 0
 425 000a 8669     		ldr	r6, [r0, #24]
 426              	.LVL55:
 310:app/process_ui.c ****     const tsProcessUiConsts *consts = process->constants;
 311:app/process_ui.c **** 
 312:app/process_ui.c ****     UNUSED(params); // REMOVE IF USED
 313:app/process_ui.c ****     UNUSED(consts); // REMOVE IF USED
 314:app/process_ui.c **** 
 315:app/process_ui.c ****     uint16_t duration;
 316:app/process_ui.c ****     memcpy(&duration, &eventData, sizeof(uint16_t));
 427              		.loc 1 316 0
 428 000c 02AB     		add	r3, sp, #8
 429              	.LVL56:
 430 000e 9C1D     		adds	r4, r3, #6
 431 0010 0222     		movs	r2, #2
 432              	.LVL57:
 433 0012 0F49     		ldr	r1, .L31
 434              	.LVL58:
 435 0014 2000     		movs	r0, r4
 436              	.LVL59:
 437 0016 FFF7FEFF 		bl	memcpy
 438              	.LVL60:
 317:app/process_ui.c **** 
 318:app/process_ui.c ****     if ((duration >= pressDuration) && (!*butonStatus))
 439              		.loc 1 318 0
 440 001a 2388     		ldrh	r3, [r4]
 441 001c AB42     		cmp	r3, r5
 442 001e 14D3     		bcc	.L28
 443              		.loc 1 318 0 is_stmt 0 discriminator 1
 444 0020 3B78     		ldrb	r3, [r7]
 445 0022 002B     		cmp	r3, #0
 446 0024 11D1     		bne	.L28
 319:app/process_ui.c ****     {
 320:app/process_ui.c ****         *butonStatus = TRUE;
 447              		.loc 1 320 0 is_stmt 1
 448 0026 0133     		adds	r3, r3, #1
 449 0028 3B70     		strb	r3, [r7]
 321:app/process_ui.c ****         if (!params->lockStatus)
 450              		.loc 1 321 0
 451 002a 3333     		adds	r3, r3, #51
 452 002c F35C     		ldrb	r3, [r6, r3]
 453 002e 002B     		cmp	r3, #0
 454 0030 07D1     		bne	.L30
 322:app/process_ui.c ****         {
 323:app/process_ui.c ****             eventPost(eventCurrent.destination, event, NULL, 0);
 455              		.loc 1 323 0
 456 0032 084B     		ldr	r3, .L31+4
 457 0034 5878     		ldrb	r0, [r3, #1]
 458 0036 0023     		movs	r3, #0
 459 0038 0022     		movs	r2, #0
 460 003a 0199     		ldr	r1, [sp, #4]
ARM GAS  C:\Users\turan\AppData\Local\Temp\ccBc3gT3.s 			page 15


 461 003c FFF7FEFF 		bl	eventPost
 462              	.LVL61:
 463 0040 03E0     		b	.L28
 464              	.L30:
 324:app/process_ui.c ****         }
 325:app/process_ui.c ****         else
 326:app/process_ui.c ****         {
 327:app/process_ui.c ****             BUZZER_BEEP(melodyKeyWarning);
 465              		.loc 1 327 0
 466 0042 306C     		ldr	r0, [r6, #64]
 467 0044 0449     		ldr	r1, .L31+8
 468 0046 FFF7FEFF 		bl	devIoPut
 469              	.LVL62:
 470              	.L28:
 328:app/process_ui.c ****         }
 329:app/process_ui.c ****     }
 330:app/process_ui.c **** }
 471              		.loc 1 330 0
 472 004a 05B0     		add	sp, sp, #20
 473              		@ sp needed
 474              	.LVL63:
 475              	.LVL64:
 476 004c F0BD     		pop	{r4, r5, r6, r7, pc}
 477              	.L32:
 478 004e C046     		.align	2
 479              	.L31:
 480 0050 00000000 		.word	eventData
 481 0054 00000000 		.word	eventCurrent
 482 0058 00000000 		.word	.LANCHOR0
 483              		.cfi_endproc
 484              	.LFE50:
 485              		.size	buttonMapper, .-buttonMapper
 486              		.global	melodyLock
 487              		.global	melodyKeyWarning
 488              		.global	melodyRelease
 489              		.global	melodyPres
 490              		.global	melodyArcelik
 491              		.global	encoderStatPrev
 492              		.global	encoderStat
 493              		.global	sevSegCounter
 494              		.comm	guiButonStatus,3,4
 495              		.section	.rodata
 496              		.align	2
 497              		.set	.LANCHOR0,. + 0
 498              		.type	melodyKeyWarning, %object
 499              		.size	melodyKeyWarning, 32
 500              	melodyKeyWarning:
 501 0000 A00F0000 		.word	4000
 502 0004 96000000 		.word	150
 503 0008 B80B0000 		.word	3000
 504 000c C8000000 		.word	200
 505 0010 A00F0000 		.word	4000
 506 0014 96000000 		.word	150
 507 0018 00000000 		.word	0
 508 001c 00000000 		.word	0
 509              		.type	melodyLock, %object
 510              		.size	melodyLock, 32
ARM GAS  C:\Users\turan\AppData\Local\Temp\ccBc3gT3.s 			page 16


 511              	melodyLock:
 512 0020 C00D0000 		.word	3520
 513 0024 96000000 		.word	150
 514 0028 6F0F0000 		.word	3951
 515 002c C8000000 		.word	200
 516 0030 2D080000 		.word	2093
 517 0034 96000000 		.word	150
 518 0038 00000000 		.word	0
 519 003c 00000000 		.word	0
 520              		.type	melodyRelease, %object
 521              		.size	melodyRelease, 16
 522              	melodyRelease:
 523 0040 3F0C0000 		.word	3135
 524 0044 96000000 		.word	150
 525 0048 00000000 		.word	0
 526 004c 00000000 		.word	0
 527              		.type	melodyPres, %object
 528              		.size	melodyPres, 16
 529              	melodyPres:
 530 0050 C00D0000 		.word	3520
 531 0054 96000000 		.word	150
 532 0058 00000000 		.word	0
 533 005c 00000000 		.word	0
 534              		.type	melodyArcelik, %object
 535              		.size	melodyArcelik, 104
 536              	melodyArcelik:
 537 0060 26050000 		.word	1318
 538 0064 FC000000 		.word	252
 539 0068 00000000 		.word	0
 540 006c 24000000 		.word	36
 541 0070 26050000 		.word	1318
 542 0074 FC000000 		.word	252
 543 0078 00000000 		.word	0
 544 007c 24000000 		.word	36
 545 0080 26050000 		.word	1318
 546 0084 FC000000 		.word	252
 547 0088 00000000 		.word	0
 548 008c 24000000 		.word	36
 549 0090 00000000 		.word	0
 550 0094 20010000 		.word	288
 551 0098 26050000 		.word	1318
 552 009c FC000000 		.word	252
 553 00a0 00000000 		.word	0
 554 00a4 24000000 		.word	36
 555 00a8 E0060000 		.word	1760
 556 00ac 1C020000 		.word	540
 557 00b0 00000000 		.word	0
 558 00b4 24000000 		.word	36
 559 00b8 00000000 		.word	0
 560 00bc 20010000 		.word	288
 561 00c0 00000000 		.word	0
 562 00c4 00000000 		.word	0
 563              		.bss
 564              		.type	encoderStatPrev, %object
 565              		.size	encoderStatPrev, 1
 566              	encoderStatPrev:
 567 0000 00       		.space	1
ARM GAS  C:\Users\turan\AppData\Local\Temp\ccBc3gT3.s 			page 17


 568              		.type	encoderStat, %object
 569              		.size	encoderStat, 1
 570              	encoderStat:
 571 0001 00       		.space	1
 572              		.type	sevSegCounter, %object
 573              		.size	sevSegCounter, 1
 574              	sevSegCounter:
 575 0002 00       		.space	1
 576              		.text
 577              	.Letext0:
 578              		.file 2 "c:\\program files (x86)\\cypress\\psoc creator\\4.4\\psoc creator\\import\\gnu\\arm\\5.4.
 579              		.file 3 "c:\\program files (x86)\\cypress\\psoc creator\\4.4\\psoc creator\\import\\gnu\\arm\\5.4.
 580              		.file 4 ".\\RCOS/libs/libs.h"
 581              		.file 5 "Generated_Source\\PSoC4/cytypes.h"
 582              		.file 6 ".\\RCOS/libs/list_dl.h"
 583              		.file 7 ".\\RCOS/dev/dev.h"
 584              		.file 8 ".\\RCOS/core/core.h"
 585              		.file 9 ".\\RCOS/dev\\pattern.h"
 586              		.file 10 "app\\process_ui.h"
 587              		.file 11 ".\\RCOS/libs/bits.h"