ARM GAS  C:\Users\turan\AppData\Local\Temp\ccAbL3AT.s 			page 1


   1              		.syntax unified
   2              		.cpu cortex-m0
   3              		.fpu softvfp
   4              		.eabi_attribute 20, 1
   5              		.eabi_attribute 21, 1
   6              		.eabi_attribute 23, 3
   7              		.eabi_attribute 24, 1
   8              		.eabi_attribute 25, 1
   9              		.eabi_attribute 26, 1
  10              		.eabi_attribute 30, 1
  11              		.eabi_attribute 34, 0
  12              		.eabi_attribute 18, 4
  13              		.thumb
  14              		.syntax unified
  15              		.file	"rcos.c"
  16              		.text
  17              	.Ltext0:
  18              		.cfi_sections	.debug_frame
  19              		.section	.text.tickStart,"ax",%progbits
  20              		.align	2
  21              		.global	tickStart
  22              		.code	16
  23              		.thumb_func
  24              		.type	tickStart, %function
  25              	tickStart:
  26              	.LFB43:
  27              		.file 1 "rcos.c"
   1:rcos.c        **** /** @file       rcos.c
   2:rcos.c        ****  *  @brief      RCoS+ main file
   3:rcos.c        ****  *  @copyright  (c) 2021-Arcelik - All Rights Reserved
   4:rcos.c        ****  *              Permission to use, reproduce, copy, prepare derivative works,
   5:rcos.c        ****  *              modify, distribute, perform, display or sell this software and/or
   6:rcos.c        ****  *              its documentation for any purpose is prohibited without the express
   7:rcos.c        ****  *              written consent of Arcelik A.S.
   8:rcos.c        ****  *  @author     mertGemalmaz
   9:rcos.c        ****  *  @date       01.06.2021
  10:rcos.c        ****  */
  11:rcos.c        **** #define FILE_RCOS_C
  12:rcos.c        **** 
  13:rcos.c        **** #include "rcos.h"
  14:rcos.c        **** #include "system.h"
  15:rcos.c        **** #include "dev/psoc4/gpio.h"
  16:rcos.c        **** #include "mw\buttons.h"
  17:rcos.c        **** #include "app\process_ui.h"
  18:rcos.c        **** #include "dev\iocomb.h"
  19:rcos.c        **** #include "dev/psoc4/gpio.h"
  20:rcos.c        **** 
  21:rcos.c        **** #include "dev\psoc4\pwm.h"
  22:rcos.c        **** #include "dev/sevensegmentdisplay.h"
  23:rcos.c        **** #include "dev\encoder.h"
  24:rcos.c        **** #include "dev\psoc4\capsense.h"
  25:rcos.c        **** 
  26:rcos.c        **** #define DEBUG_FILE_NAME "rcos"
  27:rcos.c        **** 
  28:rcos.c        **** #define CAPSENSE_SCAN_TIME 2
  29:rcos.c        **** 
  30:rcos.c        **** #define BUTON_P46 BIT(2)
ARM GAS  C:\Users\turan\AppData\Local\Temp\ccAbL3AT.s 			page 2


  31:rcos.c        **** #define BUTON_P70 BIT(1)
  32:rcos.c        **** #define BUTON_P71 BIT(0)
  33:rcos.c        **** 
  34:rcos.c        **** DEV_IO_CAPSENSE_CREATE(ioCapsense, cyCapsense, CAPSENSE_SCAN_TIME)
  35:rcos.c        **** 
  36:rcos.c        **** DEV_CPX_PWM_CORE_CREATE (pwmBuzzerCore, cyBuzzerPWM, 1e6, 0, 50 )
  37:rcos.c        **** DEV_IO_PWM_FREQ_CREATE(buzzer, pwmBuzzerCore)
  38:rcos.c        **** DEV_IO_PWM_DUTY_CREATE(buzzerDuty,pwmBuzzerCore)
  39:rcos.c        **** 
  40:rcos.c        **** DEV_IO_GPIO_CREATE(ledP43, cyLed_p43, 0) //active high :1 active low : 0
  41:rcos.c        **** DEV_IO_GPIO_CREATE(ledP44, cyLed_p44, 0) //active high :1 active low : 0
  42:rcos.c        **** DEV_IO_GPIO_CREATE(ledP45, cyLed_p45, 0) //active high :1 active low : 0
  43:rcos.c        **** 
  44:rcos.c        **** DEV_IO_IOCOMB_CREATE(ledGui,    IOCOMB_ITEM(ledP43, 1),
  45:rcos.c        ****                                 IOCOMB_ITEM(ledP44, 1),
  46:rcos.c        ****                                 IOCOMB_ITEM(ledP45, 1))
  47:rcos.c        **** 
  48:rcos.c        **** DEV_IO_GPIO_CREATE(segA, cySegA_p20, 1)
  49:rcos.c        **** DEV_IO_GPIO_CREATE(segB, cySegB_p21, 1)
  50:rcos.c        **** DEV_IO_GPIO_CREATE(segC, cySegC_p22, 1)
  51:rcos.c        **** DEV_IO_GPIO_CREATE(segD, cySegD_p23, 1)
  52:rcos.c        **** DEV_IO_GPIO_CREATE(segE, cySegE_p24, 1)
  53:rcos.c        **** DEV_IO_GPIO_CREATE(segF, cySegF_p25, 1)
  54:rcos.c        **** DEV_IO_GPIO_CREATE(segG, cySegG_p26, 1)
  55:rcos.c        **** DEV_IO_GPIO_CREATE(digit1, cyDigit1_p34, 0)
  56:rcos.c        **** DEV_IO_GPIO_CREATE(digit2, cyDigit2_p35, 0)
  57:rcos.c        **** 
  58:rcos.c        **** DEV_IO_IOCOMB_CREATE(sevenSegment,  IOCOMB_ITEM(segA, 1),
  59:rcos.c        ****                                     IOCOMB_ITEM(segB, 1),
  60:rcos.c        ****                                     IOCOMB_ITEM(segC, 1),
  61:rcos.c        ****                                     IOCOMB_ITEM(segD, 1),
  62:rcos.c        ****                                     IOCOMB_ITEM(segE, 1),
  63:rcos.c        ****                                     IOCOMB_ITEM(segF, 1),
  64:rcos.c        ****                                     IOCOMB_ITEM(segG, 1))
  65:rcos.c        **** 
  66:rcos.c        **** DEV_IO_SEVENSEGMENTDISPLAY_CREATE(sevenSegmentDisplay, sevenSegment, digit1, digit2 ) 
  67:rcos.c        **** 
  68:rcos.c        **** DEV_IO_GPIO_CREATE(encCol1, cyCol1_p03, 0)
  69:rcos.c        **** DEV_IO_GPIO_CREATE(encCol2, cyCol2_p02, 0)
  70:rcos.c        **** DEV_IO_GPIO_CREATE(encCol3, cyCol3_p01, 0)
  71:rcos.c        **** DEV_IO_GPIO_CREATE(encCol4, cyCol4_p00, 0)
  72:rcos.c        **** 
  73:rcos.c        **** DEV_IO_ENCODER_CREATE(encoder,&encCol1,&encCol2,&encCol3,&encCol4)
  74:rcos.c        **** 
  75:rcos.c        **** 
  76:rcos.c        **** 
  77:rcos.c        **** PROCESS_UI_CREATE(processUi, eProcessUi, ioCapsense, ledGui, buzzer, buzzerDuty,sevenSegmentDisplay
  78:rcos.c        **** 
  79:rcos.c        **** PROCESS_BUTTONS_CREATE(processButton,
  80:rcos.c        ****                        ioCapsense,
  81:rcos.c        ****                        eProcessUi,
  82:rcos.c        ****                        50,
  83:rcos.c        ****                        BUTTONS_ITEM(BUTON_P46, p46Pressed, p46Released),
  84:rcos.c        ****                        BUTTONS_ITEM(BUTON_P70, p70Pressed, p70Released),
  85:rcos.c        ****                        BUTTONS_ITEM(BUTON_P71, p71Pressed, p71Released),
  86:rcos.c        ****                        BUTTONS_ITEM(BUTON_P71, p71Pressed, p71Released)
  87:rcos.c        **** )
ARM GAS  C:\Users\turan\AppData\Local\Temp\ccAbL3AT.s 			page 3


  88:rcos.c        **** 
  89:rcos.c        **** // #define DEBUG_PORT_
  90:rcos.c        **** // DEBUG_START(0)
  91:rcos.c        **** 
  92:rcos.c        **** CORE_EVENTQUEUE_SIZE(1024)
  93:rcos.c        **** // CORE_DEBUG_DEV(_devName)
  94:rcos.c        **** CORE_TICK_DEFAULT(0)
  28              		.loc 1 94 0
  29              		.cfi_startproc
  30              		@ args = 0, pretend = 0, frame = 0
  31              		@ frame_needed = 0, uses_anonymous_args = 0
  32 0000 10B5     		push	{r4, lr}
  33              		.cfi_def_cfa_offset 8
  34              		.cfi_offset 4, -8
  35              		.cfi_offset 14, -4
  36              		.loc 1 94 0
  37 0002 FFF7FEFF 		bl	CySysTickStart
  38              	.LVL0:
  39 0006 0249     		ldr	r1, .L2
  40 0008 0020     		movs	r0, #0
  41 000a FFF7FEFF 		bl	CySysTickSetCallback
  42              	.LVL1:
  43              		@ sp needed
  44 000e 10BD     		pop	{r4, pc}
  45              	.L3:
  46              		.align	2
  47              	.L2:
  48 0010 00000000 		.word	rcosTickIsr
  49              		.cfi_endproc
  50              	.LFE43:
  51              		.size	tickStart, .-tickStart
  52              		.section	.text.wdtRefresh,"ax",%progbits
  53              		.align	2
  54              		.global	wdtRefresh
  55              		.code	16
  56              		.thumb_func
  57              		.type	wdtRefresh, %function
  58              	wdtRefresh:
  59              	.LFB44:
  95:rcos.c        **** CORE_WDT_DEFAULT(0)
  60              		.loc 1 95 0
  61              		.cfi_startproc
  62              		@ args = 0, pretend = 0, frame = 0
  63              		@ frame_needed = 0, uses_anonymous_args = 0
  64 0000 10B5     		push	{r4, lr}
  65              		.cfi_def_cfa_offset 8
  66              		.cfi_offset 4, -8
  67              		.cfi_offset 14, -4
  68              		.loc 1 95 0
  69 0002 0820     		movs	r0, #8
  70 0004 FFF7FEFF 		bl	CySysWdtResetCounters
  71              	.LVL2:
  72              		@ sp needed
  73 0008 10BD     		pop	{r4, pc}
  74              		.cfi_endproc
  75              	.LFE44:
  76              		.size	wdtRefresh, .-wdtRefresh
ARM GAS  C:\Users\turan\AppData\Local\Temp\ccAbL3AT.s 			page 4


  77 000a C046     		.section	.text.wdtStart,"ax",%progbits
  78              		.align	2
  79              		.global	wdtStart
  80              		.code	16
  81              		.thumb_func
  82              		.type	wdtStart, %function
  83              	wdtStart:
  84              	.LFB45:
  85              		.loc 1 95 0
  86              		.cfi_startproc
  87              		@ args = 0, pretend = 0, frame = 0
  88              		@ frame_needed = 0, uses_anonymous_args = 0
  89 0000 10B5     		push	{r4, lr}
  90              		.cfi_def_cfa_offset 8
  91              		.cfi_offset 4, -8
  92              		.cfi_offset 14, -4
  93              		.loc 1 95 0
  94 0002 0120     		movs	r0, #1
  95 0004 FFF7FEFF 		bl	CySysWdtEnable
  96              	.LVL3:
  97              		@ sp needed
  98 0008 10BD     		pop	{r4, pc}
  99              		.cfi_endproc
 100              	.LFE45:
 101              		.size	wdtStart, .-wdtStart
 102 000a C046     		.section	.text.wdtStop,"ax",%progbits
 103              		.align	2
 104              		.global	wdtStop
 105              		.code	16
 106              		.thumb_func
 107              		.type	wdtStop, %function
 108              	wdtStop:
 109              	.LFB46:
 110              		.loc 1 95 0
 111              		.cfi_startproc
 112              		@ args = 0, pretend = 0, frame = 0
 113              		@ frame_needed = 0, uses_anonymous_args = 0
 114 0000 10B5     		push	{r4, lr}
 115              		.cfi_def_cfa_offset 8
 116              		.cfi_offset 4, -8
 117              		.cfi_offset 14, -4
 118              		.loc 1 95 0
 119 0002 0120     		movs	r0, #1
 120 0004 FFF7FEFF 		bl	CySysWdtDisable
 121              	.LVL4:
 122              		@ sp needed
 123 0008 10BD     		pop	{r4, pc}
 124              		.cfi_endproc
 125              	.LFE46:
 126              		.size	wdtStop, .-wdtStop
 127 000a C046     		.section	.text.LedBlink,"ax",%progbits
 128              		.align	2
 129              		.global	LedBlink
 130              		.code	16
 131              		.thumb_func
 132              		.type	LedBlink, %function
 133              	LedBlink:
ARM GAS  C:\Users\turan\AppData\Local\Temp\ccAbL3AT.s 			page 5


 134              	.LFB47:
  96:rcos.c        **** 
  97:rcos.c        **** DEV_IO_GPIO_CREATE(LedRed, cyLed_p43, 0)
  98:rcos.c        **** 
  99:rcos.c        **** TIMER_CALLBACK_FUNC(LedBlink)
 100:rcos.c        **** {
 135              		.loc 1 100 0
 136              		.cfi_startproc
 137              		@ args = 0, pretend = 0, frame = 0
 138              		@ frame_needed = 0, uses_anonymous_args = 0
 139              	.LVL5:
 140 0000 10B5     		push	{r4, lr}
 141              		.cfi_def_cfa_offset 8
 142              		.cfi_offset 4, -8
 143              		.cfi_offset 14, -4
 101:rcos.c        ****     if(eventCurrent.event == p46Pressed){
 144              		.loc 1 101 0
 145 0002 084B     		ldr	r3, .L9
 146 0004 9B78     		ldrb	r3, [r3, #2]
 147 0006 052B     		cmp	r3, #5
 148 0008 08D1     		bne	.L8
 102:rcos.c        ****         devIoPut(&LedRed, !devIoGet(&LedRed));
 149              		.loc 1 102 0
 150 000a 074C     		ldr	r4, .L9+4
 151 000c 2000     		movs	r0, r4
 152              	.LVL6:
 153 000e FFF7FEFF 		bl	devIoGet
 154              	.LVL7:
 155 0012 4142     		rsbs	r1, r0, #0
 156 0014 4141     		adcs	r1, r1, r0
 157 0016 2000     		movs	r0, r4
 158 0018 FFF7FEFF 		bl	devIoPut
 159              	.LVL8:
 160              	.L8:
 103:rcos.c        ****     }
 104:rcos.c        ****     return 1000;
 105:rcos.c        **** }
 161              		.loc 1 105 0
 162 001c FA20     		movs	r0, #250
 163 001e 8000     		lsls	r0, r0, #2
 164              		@ sp needed
 165 0020 10BD     		pop	{r4, pc}
 166              	.L10:
 167 0022 C046     		.align	2
 168              	.L9:
 169 0024 00000000 		.word	eventCurrent
 170 0028 00000000 		.word	.LANCHOR0
 171              		.cfi_endproc
 172              	.LFE47:
 173              		.size	LedBlink, .-LedBlink
 174              		.section	.text.rcosMainLoop,"ax",%progbits
 175              		.align	2
 176              		.global	rcosMainLoop
 177              		.code	16
 178              		.thumb_func
 179              		.type	rcosMainLoop, %function
 180              	rcosMainLoop:
ARM GAS  C:\Users\turan\AppData\Local\Temp\ccAbL3AT.s 			page 6


 181              	.LFB48:
 106:rcos.c        **** 
 107:rcos.c        **** TIMER_CALLBACK_CREATE(LedTimer, LedBlink, 0)
 108:rcos.c        **** 
 109:rcos.c        **** // RCoS main loop
 110:rcos.c        **** void rcosMainLoop(void)
 111:rcos.c        **** {
 182              		.loc 1 111 0
 183              		.cfi_startproc
 184              		@ args = 0, pretend = 0, frame = 0
 185              		@ frame_needed = 0, uses_anonymous_args = 0
 186 0000 10B5     		push	{r4, lr}
 187              		.cfi_def_cfa_offset 8
 188              		.cfi_offset 4, -8
 189              		.cfi_offset 14, -4
 112:rcos.c        ****     
 113:rcos.c        ****     CyDelay(1200);  //start up delay
 190              		.loc 1 113 0
 191 0002 9620     		movs	r0, #150
 192 0004 C000     		lsls	r0, r0, #3
 193 0006 FFF7FEFF 		bl	CyDelay
 194              	.LVL9:
 114:rcos.c        ****     platformInit();
 195              		.loc 1 114 0
 196 000a FFF7FEFF 		bl	platformInit
 197              	.LVL10:
 115:rcos.c        ****     coreInit();
 198              		.loc 1 115 0
 199 000e FFF7FEFF 		bl	coreInit
 200              	.LVL11:
 116:rcos.c        **** 
 117:rcos.c        ****     //initialize devIo's
 118:rcos.c        ****     devIoInit(&segA, NULL);
 201              		.loc 1 118 0
 202 0012 104C     		ldr	r4, .L12
 203 0014 2000     		movs	r0, r4
 204 0016 1030     		adds	r0, r0, #16
 205 0018 0021     		movs	r1, #0
 206 001a FFF7FEFF 		bl	devIoInit
 207              	.LVL12:
 119:rcos.c        ****     devIoInit(&sevenSegment, NULL);
 208              		.loc 1 119 0
 209 001e 2000     		movs	r0, r4
 210 0020 2030     		adds	r0, r0, #32
 211 0022 0021     		movs	r1, #0
 212 0024 FFF7FEFF 		bl	devIoInit
 213              	.LVL13:
 120:rcos.c        ****     devIoInit(&sevenSegmentDisplay, NULL);
 214              		.loc 1 120 0
 215 0028 2000     		movs	r0, r4
 216 002a 3030     		adds	r0, r0, #48
 217 002c 0021     		movs	r1, #0
 218 002e FFF7FEFF 		bl	devIoInit
 219              	.LVL14:
 121:rcos.c        ****     devIoInit(&encoder, NULL);
 220              		.loc 1 121 0
 221 0032 2000     		movs	r0, r4
ARM GAS  C:\Users\turan\AppData\Local\Temp\ccAbL3AT.s 			page 7


 222 0034 4030     		adds	r0, r0, #64
 223 0036 0021     		movs	r1, #0
 224 0038 FFF7FEFF 		bl	devIoInit
 225              	.LVL15:
 122:rcos.c        ****     
 123:rcos.c        ****     // start processes
 124:rcos.c        ****     processStart(&processButton);
 226              		.loc 1 124 0
 227 003c 064C     		ldr	r4, .L12+4
 228 003e 2000     		movs	r0, r4
 229 0040 FFF7FEFF 		bl	processStart
 230              	.LVL16:
 125:rcos.c        ****     processStart(&processUi);
 231              		.loc 1 125 0
 232 0044 2000     		movs	r0, r4
 233 0046 4830     		adds	r0, r0, #72
 234 0048 FFF7FEFF 		bl	processStart
 235              	.LVL17:
 126:rcos.c        **** 
 127:rcos.c        ****     // processStart(&processMultiChart);
 128:rcos.c        ****     coreRun();
 236              		.loc 1 128 0
 237 004c FFF7FEFF 		bl	coreRun
 238              	.LVL18:
 129:rcos.c        **** }
 239              		.loc 1 129 0
 240              		@ sp needed
 241 0050 10BD     		pop	{r4, pc}
 242              	.L13:
 243 0052 C046     		.align	2
 244              	.L12:
 245 0054 00000000 		.word	.LANCHOR0
 246 0058 00000000 		.word	.LANCHOR1
 247              		.cfi_endproc
 248              	.LFE48:
 249              		.size	rcosMainLoop, .-rcosMainLoop
 250              		.global	LedTimer
 251              		.global	LedRed
 252              		.global	LedRedSys
 253              		.global	LedRedConsts
 254              		.global	rcosWdtVars
 255              		.global	rcosWdt
 256              		.global	rcosTick
 257              		.global	eventQueue
 258              		.comm	eventQueueBuffer,1024,4
 259              		.global	processButton
 260              		.global	processButtonConsts
 261              		.global	processButtonParams
 262              		.global	processButtonMap
 263              		.global	processUi
 264              		.global	processUiConsts
 265              		.global	processUiParams
 266              		.global	processUipatternSys
 267              		.global	processUipatternConsts
 268              		.global	processUipatternParams
 269              		.global	processUipattern
 270              		.global	encoder
ARM GAS  C:\Users\turan\AppData\Local\Temp\ccAbL3AT.s 			page 8


 271              		.global	encoderSys
 272              		.global	encoderConsts
 273              		.global	encoderParams
 274              		.global	encCol4
 275              		.global	encCol4Sys
 276              		.global	encCol4Consts
 277              		.global	encCol3
 278              		.global	encCol3Sys
 279              		.global	encCol3Consts
 280              		.global	encCol2
 281              		.global	encCol2Sys
 282              		.global	encCol2Consts
 283              		.global	encCol1
 284              		.global	encCol1Sys
 285              		.global	encCol1Consts
 286              		.global	sevenSegmentDisplay
 287              		.global	sevenSegmentDisplaySys
 288              		.global	sevenSegmentDisplayConsts
 289              		.global	sevenSegmentDisplayParams
 290              		.global	sevenSegmentDisplayProcess
 291              		.global	sevenSegment
 292              		.global	sevenSegmentSys
 293              		.global	sevenSegmentConsts
 294              		.global	sevenSegmentList
 295              		.global	digit2
 296              		.global	digit2Sys
 297              		.global	digit2Consts
 298              		.global	digit1
 299              		.global	digit1Sys
 300              		.global	digit1Consts
 301              		.global	segG
 302              		.global	segGSys
 303              		.global	segGConsts
 304              		.global	segF
 305              		.global	segFSys
 306              		.global	segFConsts
 307              		.global	segE
 308              		.global	segESys
 309              		.global	segEConsts
 310              		.global	segD
 311              		.global	segDSys
 312              		.global	segDConsts
 313              		.global	segC
 314              		.global	segCSys
 315              		.global	segCConsts
 316              		.global	segB
 317              		.global	segBSys
 318              		.global	segBConsts
 319              		.global	segA
 320              		.global	segASys
 321              		.global	segAConsts
 322              		.global	ledGui
 323              		.global	ledGuiSys
 324              		.global	ledGuiConsts
 325              		.global	ledGuiList
 326              		.global	ledP45
 327              		.global	ledP45Sys
ARM GAS  C:\Users\turan\AppData\Local\Temp\ccAbL3AT.s 			page 9


 328              		.global	ledP45Consts
 329              		.global	ledP44
 330              		.global	ledP44Sys
 331              		.global	ledP44Consts
 332              		.global	ledP43
 333              		.global	ledP43Sys
 334              		.global	ledP43Consts
 335              		.global	buzzerDuty
 336              		.global	buzzerDutySys
 337              		.global	buzzerDutyConsts
 338              		.global	buzzer
 339              		.global	buzzerSys
 340              		.global	buzzerConsts
 341              		.global	pwmBuzzerCore
 342              		.global	pwmBuzzerCoreSys
 343              		.global	pwmBuzzerCoreParams
 344              		.global	pwmBuzzerCoreConsts
 345              		.global	ioCapsenseSys
 346              		.global	ioCapsenseParams
 347              		.global	ioCapsenseConsts
 348              		.global	ioCapsense
 349              		.section	.rodata
 350              		.align	2
 351              		.set	.LANCHOR0,. + 0
 352              		.type	LedRed, %object
 353              		.size	LedRed, 16
 354              	LedRed:
 355 0000 00000000 		.word	devIoGpioFuncs
 356 0004 00000000 		.word	0
 357 0008 00000000 		.word	LedRedConsts
 358 000c 00000000 		.word	LedRedSys
 359              		.type	segA, %object
 360              		.size	segA, 16
 361              	segA:
 362 0010 00000000 		.word	devIoGpioFuncs
 363 0014 00000000 		.word	0
 364 0018 00000000 		.word	segAConsts
 365 001c 00000000 		.word	segASys
 366              		.type	sevenSegment, %object
 367              		.size	sevenSegment, 16
 368              	sevenSegment:
 369 0020 00000000 		.word	devIoIocombFuncs
 370 0024 00000000 		.word	0
 371 0028 00000000 		.word	sevenSegmentConsts
 372 002c 00000000 		.word	sevenSegmentSys
 373              		.type	sevenSegmentDisplay, %object
 374              		.size	sevenSegmentDisplay, 16
 375              	sevenSegmentDisplay:
 376 0030 00000000 		.word	devIoSevenSegmentDisplayFuncs
 377 0034 00000000 		.word	sevenSegmentDisplayParams
 378 0038 00000000 		.word	sevenSegmentDisplayConsts
 379 003c 00000000 		.word	sevenSegmentDisplaySys
 380              		.type	encoder, %object
 381              		.size	encoder, 16
 382              	encoder:
 383 0040 00000000 		.word	devIoEncoderFuncs
 384 0044 00000000 		.word	encoderParams
ARM GAS  C:\Users\turan\AppData\Local\Temp\ccAbL3AT.s 			page 10


 385 0048 00000000 		.word	encoderConsts
 386 004c 00000000 		.word	encoderSys
 387              		.type	LedRedConsts, %object
 388              		.size	LedRedConsts, 12
 389              	LedRedConsts:
 390 0050 00000000 		.word	cyLed_p43_Read
 391 0054 00000000 		.word	cyLed_p43_Write
 392 0058 00       		.byte	0
 393 0059 000000   		.space	3
 394              		.type	rcosWdt, %object
 395              		.size	rcosWdt, 12
 396              	rcosWdt:
 397 005c 00000000 		.word	wdtRefresh
 398 0060 00000000 		.word	wdtStart
 399 0064 00000000 		.word	wdtStop
 400              		.type	rcosTick, %object
 401              		.size	rcosTick, 12
 402              	rcosTick:
 403 0068 00000000 		.word	tickStart
 404 006c 00000000 		.word	CySysTickEnableInterrupt
 405 0070 00000000 		.word	CySysTickDisableInterrupt
 406              		.type	processButtonConsts, %object
 407              		.size	processButtonConsts, 16
 408              	processButtonConsts:
 409 0074 00000000 		.word	ioCapsense
 410 0078 00000000 		.word	processButtonMap
 411 007c 32000000 		.word	50
 412 0080 04       		.byte	4
 413 0081 000000   		.space	3
 414              		.type	processButtonMap, %object
 415              		.size	processButtonMap, 32
 416              	processButtonMap:
 417 0084 04000000 		.word	4
 418 0088 05       		.byte	5
 419 0089 06       		.byte	6
 420 008a 0000     		.space	2
 421 008c 02000000 		.word	2
 422 0090 07       		.byte	7
 423 0091 0A       		.byte	10
 424 0092 0000     		.space	2
 425 0094 01000000 		.word	1
 426 0098 0B       		.byte	11
 427 0099 0E       		.byte	14
 428 009a 0000     		.space	2
 429 009c 01000000 		.word	1
 430 00a0 0B       		.byte	11
 431 00a1 0E       		.byte	14
 432 00a2 0000     		.space	2
 433              		.type	processUiConsts, %object
 434              		.size	processUiConsts, 4
 435              	processUiConsts:
 436 00a4 00000000 		.word	ioCapsense
 437              		.type	processUipatternConsts, %object
 438              		.size	processUipatternConsts, 4
 439              	processUipatternConsts:
 440 00a8 00000000 		.space	4
 441              		.type	processUipattern, %object
ARM GAS  C:\Users\turan\AppData\Local\Temp\ccAbL3AT.s 			page 11


 442              		.size	processUipattern, 16
 443              	processUipattern:
 444 00ac 00000000 		.word	devIoPatternFuncs
 445 00b0 00000000 		.word	processUipatternParams
 446 00b4 00000000 		.word	processUipatternConsts
 447 00b8 00000000 		.word	processUipatternSys
 448              		.type	encoderConsts, %object
 449              		.size	encoderConsts, 16
 450              	encoderConsts:
 451 00bc 00000000 		.word	encCol1
 452 00c0 00000000 		.word	encCol2
 453 00c4 00000000 		.word	encCol3
 454 00c8 00000000 		.word	encCol4
 455              		.type	encCol4, %object
 456              		.size	encCol4, 16
 457              	encCol4:
 458 00cc 00000000 		.word	devIoGpioFuncs
 459 00d0 00000000 		.word	0
 460 00d4 00000000 		.word	encCol4Consts
 461 00d8 00000000 		.word	encCol4Sys
 462              		.type	encCol4Consts, %object
 463              		.size	encCol4Consts, 12
 464              	encCol4Consts:
 465 00dc 00000000 		.word	cyCol4_p00_Read
 466 00e0 00000000 		.word	cyCol4_p00_Write
 467 00e4 00       		.byte	0
 468 00e5 000000   		.space	3
 469              		.type	encCol3, %object
 470              		.size	encCol3, 16
 471              	encCol3:
 472 00e8 00000000 		.word	devIoGpioFuncs
 473 00ec 00000000 		.word	0
 474 00f0 00000000 		.word	encCol3Consts
 475 00f4 00000000 		.word	encCol3Sys
 476              		.type	encCol3Consts, %object
 477              		.size	encCol3Consts, 12
 478              	encCol3Consts:
 479 00f8 00000000 		.word	cyCol3_p01_Read
 480 00fc 00000000 		.word	cyCol3_p01_Write
 481 0100 00       		.byte	0
 482 0101 000000   		.space	3
 483              		.type	encCol2, %object
 484              		.size	encCol2, 16
 485              	encCol2:
 486 0104 00000000 		.word	devIoGpioFuncs
 487 0108 00000000 		.word	0
 488 010c 00000000 		.word	encCol2Consts
 489 0110 00000000 		.word	encCol2Sys
 490              		.type	encCol2Consts, %object
 491              		.size	encCol2Consts, 12
 492              	encCol2Consts:
 493 0114 00000000 		.word	cyCol2_p02_Read
 494 0118 00000000 		.word	cyCol2_p02_Write
 495 011c 00       		.byte	0
 496 011d 000000   		.space	3
 497              		.type	encCol1, %object
 498              		.size	encCol1, 16
ARM GAS  C:\Users\turan\AppData\Local\Temp\ccAbL3AT.s 			page 12


 499              	encCol1:
 500 0120 00000000 		.word	devIoGpioFuncs
 501 0124 00000000 		.word	0
 502 0128 00000000 		.word	encCol1Consts
 503 012c 00000000 		.word	encCol1Sys
 504              		.type	encCol1Consts, %object
 505              		.size	encCol1Consts, 12
 506              	encCol1Consts:
 507 0130 00000000 		.word	cyCol1_p03_Read
 508 0134 00000000 		.word	cyCol1_p03_Write
 509 0138 00       		.byte	0
 510 0139 000000   		.space	3
 511              		.type	sevenSegmentDisplayConsts, %object
 512              		.size	sevenSegmentDisplayConsts, 12
 513              	sevenSegmentDisplayConsts:
 514 013c 00000000 		.word	sevenSegment
 515 0140 00000000 		.word	digit1
 516 0144 00000000 		.word	digit2
 517              		.type	sevenSegmentConsts, %object
 518              		.size	sevenSegmentConsts, 8
 519              	sevenSegmentConsts:
 520 0148 00000000 		.word	sevenSegmentList
 521 014c 07       		.byte	7
 522 014d 000000   		.space	3
 523              		.type	sevenSegmentList, %object
 524              		.size	sevenSegmentList, 84
 525              	sevenSegmentList:
 526 0150 00000000 		.word	segA
 527 0154 01000000 		.word	1
 528 0158 01       		.byte	1
 529 0159 000000   		.space	3
 530 015c 00000000 		.word	segB
 531 0160 01000000 		.word	1
 532 0164 01       		.byte	1
 533 0165 000000   		.space	3
 534 0168 00000000 		.word	segC
 535 016c 01000000 		.word	1
 536 0170 01       		.byte	1
 537 0171 000000   		.space	3
 538 0174 00000000 		.word	segD
 539 0178 01000000 		.word	1
 540 017c 01       		.byte	1
 541 017d 000000   		.space	3
 542 0180 00000000 		.word	segE
 543 0184 01000000 		.word	1
 544 0188 01       		.byte	1
 545 0189 000000   		.space	3
 546 018c 00000000 		.word	segF
 547 0190 01000000 		.word	1
 548 0194 01       		.byte	1
 549 0195 000000   		.space	3
 550 0198 00000000 		.word	segG
 551 019c 01000000 		.word	1
 552 01a0 01       		.byte	1
 553 01a1 000000   		.space	3
 554              		.type	digit2, %object
 555              		.size	digit2, 16
ARM GAS  C:\Users\turan\AppData\Local\Temp\ccAbL3AT.s 			page 13


 556              	digit2:
 557 01a4 00000000 		.word	devIoGpioFuncs
 558 01a8 00000000 		.word	0
 559 01ac 00000000 		.word	digit2Consts
 560 01b0 00000000 		.word	digit2Sys
 561              		.type	digit2Consts, %object
 562              		.size	digit2Consts, 12
 563              	digit2Consts:
 564 01b4 00000000 		.word	cyDigit2_p35_Read
 565 01b8 00000000 		.word	cyDigit2_p35_Write
 566 01bc 00       		.byte	0
 567 01bd 000000   		.space	3
 568              		.type	digit1, %object
 569              		.size	digit1, 16
 570              	digit1:
 571 01c0 00000000 		.word	devIoGpioFuncs
 572 01c4 00000000 		.word	0
 573 01c8 00000000 		.word	digit1Consts
 574 01cc 00000000 		.word	digit1Sys
 575              		.type	digit1Consts, %object
 576              		.size	digit1Consts, 12
 577              	digit1Consts:
 578 01d0 00000000 		.word	cyDigit1_p34_Read
 579 01d4 00000000 		.word	cyDigit1_p34_Write
 580 01d8 00       		.byte	0
 581 01d9 000000   		.space	3
 582              		.type	segG, %object
 583              		.size	segG, 16
 584              	segG:
 585 01dc 00000000 		.word	devIoGpioFuncs
 586 01e0 00000000 		.word	0
 587 01e4 00000000 		.word	segGConsts
 588 01e8 00000000 		.word	segGSys
 589              		.type	segGConsts, %object
 590              		.size	segGConsts, 12
 591              	segGConsts:
 592 01ec 00000000 		.word	cySegG_p26_Read
 593 01f0 00000000 		.word	cySegG_p26_Write
 594 01f4 01       		.byte	1
 595 01f5 000000   		.space	3
 596              		.type	segF, %object
 597              		.size	segF, 16
 598              	segF:
 599 01f8 00000000 		.word	devIoGpioFuncs
 600 01fc 00000000 		.word	0
 601 0200 00000000 		.word	segFConsts
 602 0204 00000000 		.word	segFSys
 603              		.type	segFConsts, %object
 604              		.size	segFConsts, 12
 605              	segFConsts:
 606 0208 00000000 		.word	cySegF_p25_Read
 607 020c 00000000 		.word	cySegF_p25_Write
 608 0210 01       		.byte	1
 609 0211 000000   		.space	3
 610              		.type	segE, %object
 611              		.size	segE, 16
 612              	segE:
ARM GAS  C:\Users\turan\AppData\Local\Temp\ccAbL3AT.s 			page 14


 613 0214 00000000 		.word	devIoGpioFuncs
 614 0218 00000000 		.word	0
 615 021c 00000000 		.word	segEConsts
 616 0220 00000000 		.word	segESys
 617              		.type	segEConsts, %object
 618              		.size	segEConsts, 12
 619              	segEConsts:
 620 0224 00000000 		.word	cySegE_p24_Read
 621 0228 00000000 		.word	cySegE_p24_Write
 622 022c 01       		.byte	1
 623 022d 000000   		.space	3
 624              		.type	segD, %object
 625              		.size	segD, 16
 626              	segD:
 627 0230 00000000 		.word	devIoGpioFuncs
 628 0234 00000000 		.word	0
 629 0238 00000000 		.word	segDConsts
 630 023c 00000000 		.word	segDSys
 631              		.type	segDConsts, %object
 632              		.size	segDConsts, 12
 633              	segDConsts:
 634 0240 00000000 		.word	cySegD_p23_Read
 635 0244 00000000 		.word	cySegD_p23_Write
 636 0248 01       		.byte	1
 637 0249 000000   		.space	3
 638              		.type	segC, %object
 639              		.size	segC, 16
 640              	segC:
 641 024c 00000000 		.word	devIoGpioFuncs
 642 0250 00000000 		.word	0
 643 0254 00000000 		.word	segCConsts
 644 0258 00000000 		.word	segCSys
 645              		.type	segCConsts, %object
 646              		.size	segCConsts, 12
 647              	segCConsts:
 648 025c 00000000 		.word	cySegC_p22_Read
 649 0260 00000000 		.word	cySegC_p22_Write
 650 0264 01       		.byte	1
 651 0265 000000   		.space	3
 652              		.type	segB, %object
 653              		.size	segB, 16
 654              	segB:
 655 0268 00000000 		.word	devIoGpioFuncs
 656 026c 00000000 		.word	0
 657 0270 00000000 		.word	segBConsts
 658 0274 00000000 		.word	segBSys
 659              		.type	segBConsts, %object
 660              		.size	segBConsts, 12
 661              	segBConsts:
 662 0278 00000000 		.word	cySegB_p21_Read
 663 027c 00000000 		.word	cySegB_p21_Write
 664 0280 01       		.byte	1
 665 0281 000000   		.space	3
 666              		.type	segAConsts, %object
 667              		.size	segAConsts, 12
 668              	segAConsts:
 669 0284 00000000 		.word	cySegA_p20_Read
ARM GAS  C:\Users\turan\AppData\Local\Temp\ccAbL3AT.s 			page 15


 670 0288 00000000 		.word	cySegA_p20_Write
 671 028c 01       		.byte	1
 672 028d 000000   		.space	3
 673              		.type	ledGui, %object
 674              		.size	ledGui, 16
 675              	ledGui:
 676 0290 00000000 		.word	devIoIocombFuncs
 677 0294 00000000 		.word	0
 678 0298 00000000 		.word	ledGuiConsts
 679 029c 00000000 		.word	ledGuiSys
 680              		.type	ledGuiConsts, %object
 681              		.size	ledGuiConsts, 8
 682              	ledGuiConsts:
 683 02a0 00000000 		.word	ledGuiList
 684 02a4 03       		.byte	3
 685 02a5 000000   		.space	3
 686              		.type	ledGuiList, %object
 687              		.size	ledGuiList, 36
 688              	ledGuiList:
 689 02a8 00000000 		.word	ledP43
 690 02ac 01000000 		.word	1
 691 02b0 01       		.byte	1
 692 02b1 000000   		.space	3
 693 02b4 00000000 		.word	ledP44
 694 02b8 01000000 		.word	1
 695 02bc 01       		.byte	1
 696 02bd 000000   		.space	3
 697 02c0 00000000 		.word	ledP45
 698 02c4 01000000 		.word	1
 699 02c8 01       		.byte	1
 700 02c9 000000   		.space	3
 701              		.type	ledP45, %object
 702              		.size	ledP45, 16
 703              	ledP45:
 704 02cc 00000000 		.word	devIoGpioFuncs
 705 02d0 00000000 		.word	0
 706 02d4 00000000 		.word	ledP45Consts
 707 02d8 00000000 		.word	ledP45Sys
 708              		.type	ledP45Consts, %object
 709              		.size	ledP45Consts, 12
 710              	ledP45Consts:
 711 02dc 00000000 		.word	cyLed_p45_Read
 712 02e0 00000000 		.word	cyLed_p45_Write
 713 02e4 00       		.byte	0
 714 02e5 000000   		.space	3
 715              		.type	ledP44, %object
 716              		.size	ledP44, 16
 717              	ledP44:
 718 02e8 00000000 		.word	devIoGpioFuncs
 719 02ec 00000000 		.word	0
 720 02f0 00000000 		.word	ledP44Consts
 721 02f4 00000000 		.word	ledP44Sys
 722              		.type	ledP44Consts, %object
 723              		.size	ledP44Consts, 12
 724              	ledP44Consts:
 725 02f8 00000000 		.word	cyLed_p44_Read
 726 02fc 00000000 		.word	cyLed_p44_Write
ARM GAS  C:\Users\turan\AppData\Local\Temp\ccAbL3AT.s 			page 16


 727 0300 00       		.byte	0
 728 0301 000000   		.space	3
 729              		.type	ledP43, %object
 730              		.size	ledP43, 16
 731              	ledP43:
 732 0304 00000000 		.word	devIoGpioFuncs
 733 0308 00000000 		.word	0
 734 030c 00000000 		.word	ledP43Consts
 735 0310 00000000 		.word	ledP43Sys
 736              		.type	ledP43Consts, %object
 737              		.size	ledP43Consts, 12
 738              	ledP43Consts:
 739 0314 00000000 		.word	cyLed_p43_Read
 740 0318 00000000 		.word	cyLed_p43_Write
 741 031c 00       		.byte	0
 742 031d 000000   		.space	3
 743              		.type	buzzerDuty, %object
 744              		.size	buzzerDuty, 16
 745              	buzzerDuty:
 746 0320 00000000 		.word	devIoPwmDutyFuncs
 747 0324 00000000 		.word	pwmBuzzerCoreParams
 748 0328 00000000 		.word	buzzerDutyConsts
 749 032c 00000000 		.word	buzzerDutySys
 750              		.type	buzzerDutyConsts, %object
 751              		.size	buzzerDutyConsts, 8
 752              	buzzerDutyConsts:
 753 0330 00000000 		.word	pwmBuzzerCore
 754 0334 00000000 		.word	pwmBuzzerCoreParams
 755              		.type	buzzer, %object
 756              		.size	buzzer, 16
 757              	buzzer:
 758 0338 00000000 		.word	devIoPwmFreqFuncs
 759 033c 00000000 		.word	pwmBuzzerCoreParams
 760 0340 00000000 		.word	buzzerConsts
 761 0344 00000000 		.word	buzzerSys
 762              		.type	buzzerConsts, %object
 763              		.size	buzzerConsts, 8
 764              	buzzerConsts:
 765 0348 00000000 		.word	pwmBuzzerCore
 766 034c 00000000 		.word	pwmBuzzerCoreParams
 767              		.type	pwmBuzzerCore, %object
 768              		.size	pwmBuzzerCore, 16
 769              	pwmBuzzerCore:
 770 0350 00000000 		.word	devCpxPwmCoreFuncs
 771 0354 00000000 		.word	pwmBuzzerCoreParams
 772 0358 00000000 		.word	pwmBuzzerCoreConsts
 773 035c 00000000 		.word	pwmBuzzerCoreSys
 774              		.type	pwmBuzzerCoreConsts, %object
 775              		.size	pwmBuzzerCoreConsts, 16
 776              	pwmBuzzerCoreConsts:
 777 0360 00000000 		.word	cyBuzzerPWM_Start
 778 0364 00000000 		.word	cyBuzzerPWM_Stop
 779 0368 00000000 		.word	cyBuzzerPWM_WritePeriod
 780 036c 00000000 		.word	cyBuzzerPWM_WriteCompare
 781              		.type	ioCapsenseConsts, %object
 782              		.size	ioCapsenseConsts, 28
 783              	ioCapsenseConsts:
ARM GAS  C:\Users\turan\AppData\Local\Temp\ccAbL3AT.s 			page 17


 784 0370 00000000 		.word	cyCapsense_Start
 785 0374 00000000 		.word	cyCapsense_Stop
 786 0378 00000000 		.word	cyCapsense_IsBusy
 787 037c 00000000 		.word	cyCapsense_ProcessAllWidgets
 788 0380 00000000 		.word	cyCapsense_ScanAllWidgets
 789 0384 00000000 		.word	cyCapsense_IsSensorActive
 790 0388 03       		.byte	3
 791 0389 02       		.byte	2
 792 038a 0000     		.space	2
 793              		.type	ioCapsense, %object
 794              		.size	ioCapsense, 16
 795              	ioCapsense:
 796 038c 00000000 		.word	devIoCapsenseFuncs
 797 0390 00000000 		.word	ioCapsenseParams
 798 0394 00000000 		.word	ioCapsenseConsts
 799 0398 00000000 		.word	ioCapsenseSys
 800              		.data
 801              		.align	2
 802              		.set	.LANCHOR1,. + 0
 803              		.type	processButton, %object
 804              		.size	processButton, 72
 805              	processButton:
 806 0000 00000000 		.word	0
 807 0004 00000000 		.word	0
 808 0008 00000000 		.word	buttonsInit
 809 000c 00000000 		.word	buttonsDeinit
 810 0010 00000000 		.word	0
 811 0014 00000000 		.word	0
 812 0018 00000000 		.word	processButtonParams
 813 001c 00000000 		.word	processButtonConsts
 814 0020 0000     		.short	0
 815 0022 0000     		.short	0
 816 0024 0000     		.short	0
 817 0026 0000     		.short	0
 818 0028 00000000 		.word	0
 819 002c 0000     		.short	0
 820 002e 0000     		.space	2
 821 0030 00000000 		.word	0
 822 0034 00000000 		.word	0
 823 0038 00000000 		.word	0
 824 003c FF       		.byte	-1
 825 003d FF       		.byte	-1
 826 003e FF       		.byte	-1
 827 003f 00       		.byte	0
 828 0040 00000000 		.word	0
 829 0044 FF       		.byte	-1
 830 0045 00       		.byte	0
 831 0046 0000     		.space	2
 832              		.type	processUi, %object
 833              		.size	processUi, 72
 834              	processUi:
 835 0048 00000000 		.word	0
 836 004c 00000000 		.word	0
 837 0050 00000000 		.word	processUiInit
 838 0054 00000000 		.word	processUiDeinit
 839 0058 00000000 		.word	0
 840 005c 00000000 		.word	0
ARM GAS  C:\Users\turan\AppData\Local\Temp\ccAbL3AT.s 			page 18


 841 0060 00000000 		.word	processUiParams
 842 0064 00000000 		.word	processUiConsts
 843 0068 0000     		.short	0
 844 006a 0000     		.short	0
 845 006c 0000     		.short	0
 846 006e 0000     		.short	0
 847 0070 00000000 		.word	0
 848 0074 0000     		.short	0
 849 0076 0000     		.space	2
 850 0078 00000000 		.word	0
 851 007c 00000000 		.word	0
 852 0080 00000000 		.word	0
 853 0084 00       		.byte	0
 854 0085 00       		.byte	0
 855 0086 FF       		.byte	-1
 856 0087 00       		.byte	0
 857 0088 00000000 		.word	0
 858 008c 00       		.byte	0
 859 008d 00       		.byte	0
 860 008e 0000     		.space	2
 861              		.type	LedTimer, %object
 862              		.size	LedTimer, 20
 863              	LedTimer:
 864 0090 00000000 		.word	0
 865 0094 00000000 		.word	0
 866 0098 00000000 		.word	0
 867 009c 00000000 		.word	LedBlink
 868 00a0 00000000 		.word	0
 869              		.type	eventQueue, %object
 870              		.size	eventQueue, 12
 871              	eventQueue:
 872 00a4 00000000 		.word	eventQueueBuffer
 873 00a8 0004     		.short	1024
 874 00aa 0000     		.short	0
 875 00ac 0000     		.short	0
 876 00ae 0000     		.short	0
 877              		.type	processButtonParams, %object
 878              		.size	processButtonParams, 12
 879              	processButtonParams:
 880 00b0 00000000 		.word	0
 881 00b4 00000000 		.word	0
 882 00b8 00       		.byte	0
 883 00b9 04       		.byte	4
 884 00ba 0000     		.space	2
 885              		.type	processUiParams, %object
 886              		.size	processUiParams, 76
 887              	processUiParams:
 888 00bc 00000000 		.word	0
 889 00c0 00000000 		.word	0
 890 00c4 00000000 		.word	0
 891 00c8 00       		.byte	0
 892 00c9 00       		.byte	0
 893 00ca 00       		.byte	0
 894 00cb 00       		.byte	0
 895 00cc 00000000 		.word	0
 896 00d0 00000000 		.word	0
 897 00d4 00000000 		.word	0
ARM GAS  C:\Users\turan\AppData\Local\Temp\ccAbL3AT.s 			page 19


 898 00d8 00       		.byte	0
 899 00d9 00       		.byte	0
 900 00da 01       		.byte	1
 901 00db 00       		.byte	0
 902 00dc 00000000 		.word	0
 903 00e0 00000000 		.word	0
 904 00e4 00000000 		.word	0
 905 00e8 00       		.byte	0
 906 00e9 00       		.byte	0
 907 00ea 04       		.byte	4
 908 00eb 00       		.byte	0
 909 00ec 00000000 		.word	0
 910 00f0 00       		.byte	0
 911 00f1 000000   		.space	3
 912 00f4 00000000 		.word	ledGui
 913 00f8 00000000 		.word	buzzerDuty
 914 00fc 00000000 		.word	processUipattern
 915 0100 00000000 		.word	sevenSegmentDisplay
 916 0104 00000000 		.word	encoder
 917              		.type	processUipatternParams, %object
 918              		.size	processUipatternParams, 32
 919              	processUipatternParams:
 920 0108 00000000 		.word	0
 921 010c 00000000 		.word	0
 922 0110 00000000 		.word	0
 923 0114 00000000 		.word	patternPutHandler
 924 0118 00000000 		.word	processUipattern
 925 011c 00000000 		.word	0
 926 0120 00000000 		.word	0
 927 0124 00000000 		.word	buzzer
 928              		.type	sevenSegmentDisplayParams, %object
 929              		.size	sevenSegmentDisplayParams, 24
 930              	sevenSegmentDisplayParams:
 931 0128 00000000 		.word	0
 932 012c 00000000 		.word	0
 933 0130 00000000 		.word	0
 934 0134 FF       		.byte	-1
 935 0135 FF       		.byte	-1
 936 0136 01       		.byte	1
 937 0137 00       		.byte	0
 938 0138 00000000 		.space	4
 939 013c 00000000 		.word	sevenSegmentDisplayProcess
 940              		.type	sevenSegmentDisplayProcess, %object
 941              		.size	sevenSegmentDisplayProcess, 72
 942              	sevenSegmentDisplayProcess:
 943 0140 00000000 		.word	0
 944 0144 00000000 		.word	0
 945 0148 00000000 		.word	sevenSegmentDisplayProcessInit
 946 014c 00000000 		.word	sevenSegmentDisplayProcessDeinit
 947 0150 00000000 		.word	0
 948 0154 00000000 		.word	0
 949 0158 00000000 		.word	sevenSegmentDisplayParams
 950 015c 00000000 		.word	sevenSegmentDisplayConsts
 951 0160 0000     		.short	0
 952 0162 0000     		.short	0
 953 0164 0000     		.short	0
 954 0166 0000     		.short	0
ARM GAS  C:\Users\turan\AppData\Local\Temp\ccAbL3AT.s 			page 20


 955 0168 00000000 		.word	0
 956 016c 0000     		.short	0
 957 016e 0000     		.space	2
 958 0170 00000000 		.word	0
 959 0174 00000000 		.word	0
 960 0178 00000000 		.word	0
 961 017c FF       		.byte	-1
 962 017d FF       		.byte	-1
 963 017e FF       		.byte	-1
 964 017f 00       		.byte	0
 965 0180 00000000 		.word	0
 966 0184 FF       		.byte	-1
 967 0185 00       		.byte	0
 968 0186 0000     		.space	2
 969              		.type	pwmBuzzerCoreParams, %object
 970              		.size	pwmBuzzerCoreParams, 12
 971              	pwmBuzzerCoreParams:
 972 0188 40420F00 		.word	1000000
 973 018c 00000000 		.word	0
 974 0190 32000000 		.word	50
 975              		.type	ioCapsenseParams, %object
 976              		.size	ioCapsenseParams, 20
 977              	ioCapsenseParams:
 978 0194 00000000 		.word	0
 979 0198 00000000 		.word	0
 980 019c 00000000 		.word	0
 981 01a0 00000000 		.word	capsenseIsr
 982 01a4 00000000 		.word	ioCapsense
 983              		.bss
 984              		.align	2
 985              		.type	LedRedSys, %object
 986              		.size	LedRedSys, 1
 987              	LedRedSys:
 988 0000 00       		.space	1
 989 0001 000000   		.space	3
 990              		.type	rcosWdtVars, %object
 991              		.size	rcosWdtVars, 8
 992              	rcosWdtVars:
 993 0004 00000000 		.space	8
 993      00000000 
 994              		.type	processUipatternSys, %object
 995              		.size	processUipatternSys, 1
 996              	processUipatternSys:
 997 000c 00       		.space	1
 998 000d 000000   		.space	3
 999              		.type	encoderSys, %object
 1000              		.size	encoderSys, 1
 1001              	encoderSys:
 1002 0010 00       		.space	1
 1003 0011 000000   		.space	3
 1004              		.type	encoderParams, %object
 1005              		.size	encoderParams, 1
 1006              	encoderParams:
 1007 0014 00       		.space	1
 1008 0015 000000   		.space	3
 1009              		.type	encCol4Sys, %object
 1010              		.size	encCol4Sys, 1
ARM GAS  C:\Users\turan\AppData\Local\Temp\ccAbL3AT.s 			page 21


 1011              	encCol4Sys:
 1012 0018 00       		.space	1
 1013 0019 000000   		.space	3
 1014              		.type	encCol3Sys, %object
 1015              		.size	encCol3Sys, 1
 1016              	encCol3Sys:
 1017 001c 00       		.space	1
 1018 001d 000000   		.space	3
 1019              		.type	encCol2Sys, %object
 1020              		.size	encCol2Sys, 1
 1021              	encCol2Sys:
 1022 0020 00       		.space	1
 1023 0021 000000   		.space	3
 1024              		.type	encCol1Sys, %object
 1025              		.size	encCol1Sys, 1
 1026              	encCol1Sys:
 1027 0024 00       		.space	1
 1028 0025 000000   		.space	3
 1029              		.type	sevenSegmentDisplaySys, %object
 1030              		.size	sevenSegmentDisplaySys, 1
 1031              	sevenSegmentDisplaySys:
 1032 0028 00       		.space	1
 1033 0029 000000   		.space	3
 1034              		.type	sevenSegmentSys, %object
 1035              		.size	sevenSegmentSys, 1
 1036              	sevenSegmentSys:
 1037 002c 00       		.space	1
 1038 002d 000000   		.space	3
 1039              		.type	digit2Sys, %object
 1040              		.size	digit2Sys, 1
 1041              	digit2Sys:
 1042 0030 00       		.space	1
 1043 0031 000000   		.space	3
 1044              		.type	digit1Sys, %object
 1045              		.size	digit1Sys, 1
 1046              	digit1Sys:
 1047 0034 00       		.space	1
 1048 0035 000000   		.space	3
 1049              		.type	segGSys, %object
 1050              		.size	segGSys, 1
 1051              	segGSys:
 1052 0038 00       		.space	1
 1053 0039 000000   		.space	3
 1054              		.type	segFSys, %object
 1055              		.size	segFSys, 1
 1056              	segFSys:
 1057 003c 00       		.space	1
 1058 003d 000000   		.space	3
 1059              		.type	segESys, %object
 1060              		.size	segESys, 1
 1061              	segESys:
 1062 0040 00       		.space	1
 1063 0041 000000   		.space	3
 1064              		.type	segDSys, %object
 1065              		.size	segDSys, 1
 1066              	segDSys:
 1067 0044 00       		.space	1
ARM GAS  C:\Users\turan\AppData\Local\Temp\ccAbL3AT.s 			page 22


 1068 0045 000000   		.space	3
 1069              		.type	segCSys, %object
 1070              		.size	segCSys, 1
 1071              	segCSys:
 1072 0048 00       		.space	1
 1073 0049 000000   		.space	3
 1074              		.type	segBSys, %object
 1075              		.size	segBSys, 1
 1076              	segBSys:
 1077 004c 00       		.space	1
 1078 004d 000000   		.space	3
 1079              		.type	segASys, %object
 1080              		.size	segASys, 1
 1081              	segASys:
 1082 0050 00       		.space	1
 1083 0051 000000   		.space	3
 1084              		.type	ledGuiSys, %object
 1085              		.size	ledGuiSys, 1
 1086              	ledGuiSys:
 1087 0054 00       		.space	1
 1088 0055 000000   		.space	3
 1089              		.type	ledP45Sys, %object
 1090              		.size	ledP45Sys, 1
 1091              	ledP45Sys:
 1092 0058 00       		.space	1
 1093 0059 000000   		.space	3
 1094              		.type	ledP44Sys, %object
 1095              		.size	ledP44Sys, 1
 1096              	ledP44Sys:
 1097 005c 00       		.space	1
 1098 005d 000000   		.space	3
 1099              		.type	ledP43Sys, %object
 1100              		.size	ledP43Sys, 1
 1101              	ledP43Sys:
 1102 0060 00       		.space	1
 1103 0061 000000   		.space	3
 1104              		.type	buzzerDutySys, %object
 1105              		.size	buzzerDutySys, 1
 1106              	buzzerDutySys:
 1107 0064 00       		.space	1
 1108 0065 000000   		.space	3
 1109              		.type	buzzerSys, %object
 1110              		.size	buzzerSys, 1
 1111              	buzzerSys:
 1112 0068 00       		.space	1
 1113 0069 000000   		.space	3
 1114              		.type	pwmBuzzerCoreSys, %object
 1115              		.size	pwmBuzzerCoreSys, 6
 1116              	pwmBuzzerCoreSys:
 1117 006c 00000000 		.space	6
 1117      0000
 1118 0072 0000     		.space	2
 1119              		.type	ioCapsenseSys, %object
 1120              		.size	ioCapsenseSys, 1
 1121              	ioCapsenseSys:
 1122 0074 00       		.space	1
 1123              		.text
ARM GAS  C:\Users\turan\AppData\Local\Temp\ccAbL3AT.s 			page 23


 1124              	.Letext0:
 1125              		.file 2 "c:\\program files (x86)\\cypress\\psoc creator\\4.4\\psoc creator\\import\\gnu\\arm\\5.4.
 1126              		.file 3 "c:\\program files (x86)\\cypress\\psoc creator\\4.4\\psoc creator\\import\\gnu\\arm\\5.4.
 1127              		.file 4 ".\\RCOS/libs/ticket.h"
 1128              		.file 5 "Generated_Source\\PSoC4/cytypes.h"
 1129              		.file 6 ".\\RCOS/libs/deque.h"
 1130              		.file 7 ".\\RCOS/libs/list_dl.h"
 1131              		.file 8 ".\\RCOS/dev/dev.h"
 1132              		.file 9 ".\\RCOS/core/core.h"
 1133              		.file 10 ".\\RCOS/dev/psoc4/gpio.h"
 1134              		.file 11 ".\\RCOS/mw\\buttons.h"
 1135              		.file 12 ".\\RCOS/dev\\pattern.h"
 1136              		.file 13 "system.h"
 1137              		.file 14 "app\\process_ui.h"
 1138              		.file 15 ".\\RCOS/dev\\iocomb.h"
 1139              		.file 16 ".\\RCOS/dev\\psoc4\\pwm.h"
 1140              		.file 17 "dev/sevensegmentdisplay.h"
 1141              		.file 18 "dev\\encoder.h"
 1142              		.file 19 ".\\RCOS/dev\\psoc4\\capsense.h"
 1143              		.file 20 ".\\RCOS/libs/bits.h"
 1144              		.file 21 "Generated_Source\\PSoC4/CyLib.h"
 1145              		.file 22 "Generated_Source\\PSoC4/CyLFClk.h"
 1146              		.file 23 ".\\RCOS/porting.h"